
SchlossBox.elf:     file format elf32-littlearm


Disassembly of section .text:

08000000 <__isr_vector>:
 8000000:	20020000 	.word	0x20020000
 8000004:	08000189 	.word	0x08000189
 8000008:	0800309d 	.word	0x0800309d
 800000c:	080030bd 	.word	0x080030bd
 8000010:	080030a1 	.word	0x080030a1
 8000014:	080030a5 	.word	0x080030a5
 8000018:	080030c5 	.word	0x080030c5
	...
 800002c:	080030c9 	.word	0x080030c9
 8000030:	080030cd 	.word	0x080030cd
 8000034:	00000000 	.word	0x00000000
 8000038:	080030d1 	.word	0x080030d1
 800003c:	08001ce5 	.word	0x08001ce5
 8000040:	080001e7 	.word	0x080001e7
 8000044:	080001e9 	.word	0x080001e9
 8000048:	080001eb 	.word	0x080001eb
 800004c:	080001ed 	.word	0x080001ed
 8000050:	080001ef 	.word	0x080001ef
 8000054:	080001f1 	.word	0x080001f1
 8000058:	080001f3 	.word	0x080001f3
 800005c:	080001f5 	.word	0x080001f5
 8000060:	080001f7 	.word	0x080001f7
 8000064:	080001f9 	.word	0x080001f9
 8000068:	080001fb 	.word	0x080001fb
 800006c:	080001fd 	.word	0x080001fd
 8000070:	080001ff 	.word	0x080001ff
 8000074:	08000201 	.word	0x08000201
 8000078:	08000203 	.word	0x08000203
 800007c:	08000205 	.word	0x08000205
 8000080:	08000207 	.word	0x08000207
 8000084:	08000209 	.word	0x08000209
 8000088:	0800020b 	.word	0x0800020b
 800008c:	0800020d 	.word	0x0800020d
 8000090:	08002ad9 	.word	0x08002ad9
 8000094:	08000211 	.word	0x08000211
 8000098:	08000213 	.word	0x08000213
 800009c:	08000215 	.word	0x08000215
 80000a0:	08000217 	.word	0x08000217
 80000a4:	08000219 	.word	0x08000219
 80000a8:	0800021b 	.word	0x0800021b
 80000ac:	0800021d 	.word	0x0800021d
 80000b0:	0800021f 	.word	0x0800021f
 80000b4:	08000221 	.word	0x08000221
 80000b8:	08000223 	.word	0x08000223
 80000bc:	08000225 	.word	0x08000225
 80000c0:	08000227 	.word	0x08000227
 80000c4:	08000229 	.word	0x08000229
 80000c8:	0800022b 	.word	0x0800022b
 80000cc:	0800022d 	.word	0x0800022d
 80000d0:	0800022f 	.word	0x0800022f
 80000d4:	08000231 	.word	0x08000231
 80000d8:	08000233 	.word	0x08000233
 80000dc:	08000235 	.word	0x08000235
 80000e0:	08000237 	.word	0x08000237
 80000e4:	08000239 	.word	0x08000239
 80000e8:	0800023b 	.word	0x0800023b
 80000ec:	0800023d 	.word	0x0800023d
 80000f0:	0800023f 	.word	0x0800023f
 80000f4:	08000241 	.word	0x08000241
 80000f8:	08000243 	.word	0x08000243
 80000fc:	08000245 	.word	0x08000245
 8000100:	08000247 	.word	0x08000247
 8000104:	08000249 	.word	0x08000249
 8000108:	0800024b 	.word	0x0800024b
 800010c:	0800024d 	.word	0x0800024d
 8000110:	0800024f 	.word	0x0800024f
 8000114:	08000251 	.word	0x08000251
 8000118:	08000253 	.word	0x08000253
 800011c:	08000255 	.word	0x08000255
 8000120:	08000257 	.word	0x08000257
 8000124:	08000259 	.word	0x08000259
 8000128:	0800025b 	.word	0x0800025b
 800012c:	0800025d 	.word	0x0800025d
 8000130:	0800025f 	.word	0x0800025f
 8000134:	08000261 	.word	0x08000261
 8000138:	08000263 	.word	0x08000263
 800013c:	08000265 	.word	0x08000265
 8000140:	08000267 	.word	0x08000267
 8000144:	08000269 	.word	0x08000269
 8000148:	0800026b 	.word	0x0800026b
 800014c:	0800026d 	.word	0x0800026d
 8000150:	0800026f 	.word	0x0800026f
 8000154:	08000271 	.word	0x08000271
 8000158:	08000273 	.word	0x08000273
 800015c:	08000275 	.word	0x08000275
 8000160:	08000277 	.word	0x08000277
 8000164:	08000279 	.word	0x08000279
 8000168:	0800027b 	.word	0x0800027b
 800016c:	0800027d 	.word	0x0800027d
 8000170:	0800027f 	.word	0x0800027f
 8000174:	08000281 	.word	0x08000281
 8000178:	08000283 	.word	0x08000283
 800017c:	08000285 	.word	0x08000285
 8000180:	08000287 	.word	0x08000287
 8000184:	08000289 	.word	0x08000289

08000188 <Reset_Handler>:
 8000188:	f002 ffa4 	bl	80030d4 <SystemInit>
 800018c:	480b      	ldr	r0, [pc, #44]	; (80001bc <STARTUP_CLEAR_BSS+0x16>)
 800018e:	f380 8808 	msr	MSP, r0
 8000192:	490b      	ldr	r1, [pc, #44]	; (80001c0 <STARTUP_CLEAR_BSS+0x1a>)
 8000194:	4a0b      	ldr	r2, [pc, #44]	; (80001c4 <STARTUP_CLEAR_BSS+0x1e>)
 8000196:	4b0c      	ldr	r3, [pc, #48]	; (80001c8 <STARTUP_CLEAR_BSS+0x22>)
 8000198:	429a      	cmp	r2, r3
 800019a:	bfbe      	ittt	lt
 800019c:	f851 0b04 	ldrlt.w	r0, [r1], #4
 80001a0:	f842 0b04 	strlt.w	r0, [r2], #4
 80001a4:	e7f8      	blt.n	8000198 <Reset_Handler+0x10>

080001a6 <STARTUP_CLEAR_BSS>:
 80001a6:	4909      	ldr	r1, [pc, #36]	; (80001cc <STARTUP_CLEAR_BSS+0x26>)
 80001a8:	4a09      	ldr	r2, [pc, #36]	; (80001d0 <STARTUP_CLEAR_BSS+0x2a>)
 80001aa:	2000      	movs	r0, #0
 80001ac:	4291      	cmp	r1, r2
 80001ae:	bfbc      	itt	lt
 80001b0:	f841 0b04 	strlt.w	r0, [r1], #4
 80001b4:	e7fa      	blt.n	80001ac <STARTUP_CLEAR_BSS+0x6>
 80001b6:	f001 fd9d 	bl	8001cf4 <main>
 80001ba:	0000      	.short	0x0000
 80001bc:	20020000 	.word	0x20020000
 80001c0:	0800537c 	.word	0x0800537c
 80001c4:	20000000 	.word	0x20000000
 80001c8:	2000086c 	.word	0x2000086c
 80001cc:	20000870 	.word	0x20000870
 80001d0:	200011d8 	.word	0x200011d8
 80001d4:	e7fe      	b.n	80001d4 <STARTUP_CLEAR_BSS+0x2e>
 80001d6:	e7fe      	b.n	80001d6 <STARTUP_CLEAR_BSS+0x30>
 80001d8:	e7fe      	b.n	80001d8 <STARTUP_CLEAR_BSS+0x32>
 80001da:	e7fe      	b.n	80001da <STARTUP_CLEAR_BSS+0x34>
 80001dc:	e7fe      	b.n	80001dc <STARTUP_CLEAR_BSS+0x36>
 80001de:	e7fe      	b.n	80001de <STARTUP_CLEAR_BSS+0x38>
 80001e0:	e7fe      	b.n	80001e0 <STARTUP_CLEAR_BSS+0x3a>
 80001e2:	e7fe      	b.n	80001e2 <STARTUP_CLEAR_BSS+0x3c>
 80001e4:	e7fe      	b.n	80001e4 <STARTUP_CLEAR_BSS+0x3e>

080001e6 <WWDG_IRQHandler>:
 80001e6:	e7fe      	b.n	80001e6 <WWDG_IRQHandler>

080001e8 <PVD_IRQHandler>:
 80001e8:	e7fe      	b.n	80001e8 <PVD_IRQHandler>

080001ea <TAMP_STAMP_IRQHandler>:
 80001ea:	e7fe      	b.n	80001ea <TAMP_STAMP_IRQHandler>

080001ec <RTC_WKUP_IRQHandler>:
 80001ec:	e7fe      	b.n	80001ec <RTC_WKUP_IRQHandler>

080001ee <FLASH_IRQHandler>:
 80001ee:	e7fe      	b.n	80001ee <FLASH_IRQHandler>

080001f0 <RCC_IRQHandler>:
 80001f0:	e7fe      	b.n	80001f0 <RCC_IRQHandler>

080001f2 <EXTI0_IRQHandler>:
 80001f2:	e7fe      	b.n	80001f2 <EXTI0_IRQHandler>

080001f4 <EXTI1_IRQHandler>:
 80001f4:	e7fe      	b.n	80001f4 <EXTI1_IRQHandler>

080001f6 <EXTI2_IRQHandler>:
 80001f6:	e7fe      	b.n	80001f6 <EXTI2_IRQHandler>

080001f8 <EXTI3_IRQHandler>:
 80001f8:	e7fe      	b.n	80001f8 <EXTI3_IRQHandler>

080001fa <EXTI4_IRQHandler>:
 80001fa:	e7fe      	b.n	80001fa <EXTI4_IRQHandler>

080001fc <DMA1_Stream0_IRQHandler>:
 80001fc:	e7fe      	b.n	80001fc <DMA1_Stream0_IRQHandler>

080001fe <DMA1_Stream1_IRQHandler>:
 80001fe:	e7fe      	b.n	80001fe <DMA1_Stream1_IRQHandler>

08000200 <DMA1_Stream2_IRQHandler>:
 8000200:	e7fe      	b.n	8000200 <DMA1_Stream2_IRQHandler>

08000202 <DMA1_Stream3_IRQHandler>:
 8000202:	e7fe      	b.n	8000202 <DMA1_Stream3_IRQHandler>

08000204 <DMA1_Stream4_IRQHandler>:
 8000204:	e7fe      	b.n	8000204 <DMA1_Stream4_IRQHandler>

08000206 <DMA1_Stream5_IRQHandler>:
 8000206:	e7fe      	b.n	8000206 <DMA1_Stream5_IRQHandler>

08000208 <DMA1_Stream6_IRQHandler>:
 8000208:	e7fe      	b.n	8000208 <DMA1_Stream6_IRQHandler>

0800020a <ADC_IRQHandler>:
 800020a:	e7fe      	b.n	800020a <ADC_IRQHandler>

0800020c <CAN1_TX_IRQHandler>:
 800020c:	e7fe      	b.n	800020c <CAN1_TX_IRQHandler>
 800020e:	e7fe      	b.n	800020e <CAN1_TX_IRQHandler+0x2>

08000210 <CAN1_RX1_IRQHandler>:
 8000210:	e7fe      	b.n	8000210 <CAN1_RX1_IRQHandler>

08000212 <CAN1_SCE_IRQHandler>:
 8000212:	e7fe      	b.n	8000212 <CAN1_SCE_IRQHandler>

08000214 <EXTI9_5_IRQHandler>:
 8000214:	e7fe      	b.n	8000214 <EXTI9_5_IRQHandler>

08000216 <TIM1_BRK_TIM9_IRQHandler>:
 8000216:	e7fe      	b.n	8000216 <TIM1_BRK_TIM9_IRQHandler>

08000218 <TIM1_UP_TIM10_IRQHandler>:
 8000218:	e7fe      	b.n	8000218 <TIM1_UP_TIM10_IRQHandler>

0800021a <TIM1_TRG_COM_TIM11_IRQHandler>:
 800021a:	e7fe      	b.n	800021a <TIM1_TRG_COM_TIM11_IRQHandler>

0800021c <TIM1_CC_IRQHandler>:
 800021c:	e7fe      	b.n	800021c <TIM1_CC_IRQHandler>

0800021e <TIM2_IRQHandler>:
 800021e:	e7fe      	b.n	800021e <TIM2_IRQHandler>

08000220 <TIM3_IRQHandler>:
 8000220:	e7fe      	b.n	8000220 <TIM3_IRQHandler>

08000222 <TIM4_IRQHandler>:
 8000222:	e7fe      	b.n	8000222 <TIM4_IRQHandler>

08000224 <I2C1_EV_IRQHandler>:
 8000224:	e7fe      	b.n	8000224 <I2C1_EV_IRQHandler>

08000226 <I2C1_ER_IRQHandler>:
 8000226:	e7fe      	b.n	8000226 <I2C1_ER_IRQHandler>

08000228 <I2C2_EV_IRQHandler>:
 8000228:	e7fe      	b.n	8000228 <I2C2_EV_IRQHandler>

0800022a <I2C2_ER_IRQHandler>:
 800022a:	e7fe      	b.n	800022a <I2C2_ER_IRQHandler>

0800022c <SPI1_IRQHandler>:
 800022c:	e7fe      	b.n	800022c <SPI1_IRQHandler>

0800022e <SPI2_IRQHandler>:
 800022e:	e7fe      	b.n	800022e <SPI2_IRQHandler>

08000230 <USART1_IRQHandler>:
 8000230:	e7fe      	b.n	8000230 <USART1_IRQHandler>

08000232 <USART2_IRQHandler>:
 8000232:	e7fe      	b.n	8000232 <USART2_IRQHandler>

08000234 <USART3_IRQHandler>:
 8000234:	e7fe      	b.n	8000234 <USART3_IRQHandler>

08000236 <EXTI15_10_IRQHandler>:
 8000236:	e7fe      	b.n	8000236 <EXTI15_10_IRQHandler>

08000238 <RTC_Alarm_IRQHandler>:
 8000238:	e7fe      	b.n	8000238 <RTC_Alarm_IRQHandler>

0800023a <OTG_FS_WKUP_IRQHandler>:
 800023a:	e7fe      	b.n	800023a <OTG_FS_WKUP_IRQHandler>

0800023c <TIM8_BRK_TIM12_IRQHandler>:
 800023c:	e7fe      	b.n	800023c <TIM8_BRK_TIM12_IRQHandler>

0800023e <TIM8_UP_TIM13_IRQHandler>:
 800023e:	e7fe      	b.n	800023e <TIM8_UP_TIM13_IRQHandler>

08000240 <TIM8_TRG_COM_TIM14_IRQHandler>:
 8000240:	e7fe      	b.n	8000240 <TIM8_TRG_COM_TIM14_IRQHandler>

08000242 <TIM8_CC_IRQHandler>:
 8000242:	e7fe      	b.n	8000242 <TIM8_CC_IRQHandler>

08000244 <DMA1_Stream7_IRQHandler>:
 8000244:	e7fe      	b.n	8000244 <DMA1_Stream7_IRQHandler>

08000246 <FSMC_IRQHandler>:
 8000246:	e7fe      	b.n	8000246 <FSMC_IRQHandler>

08000248 <SDIO_IRQHandler>:
 8000248:	e7fe      	b.n	8000248 <SDIO_IRQHandler>

0800024a <TIM5_IRQHandler>:
 800024a:	e7fe      	b.n	800024a <TIM5_IRQHandler>

0800024c <SPI3_IRQHandler>:
 800024c:	e7fe      	b.n	800024c <SPI3_IRQHandler>

0800024e <UART4_IRQHandler>:
 800024e:	e7fe      	b.n	800024e <UART4_IRQHandler>

08000250 <UART5_IRQHandler>:
 8000250:	e7fe      	b.n	8000250 <UART5_IRQHandler>

08000252 <TIM6_DAC_IRQHandler>:
 8000252:	e7fe      	b.n	8000252 <TIM6_DAC_IRQHandler>

08000254 <TIM7_IRQHandler>:
 8000254:	e7fe      	b.n	8000254 <TIM7_IRQHandler>

08000256 <DMA2_Stream0_IRQHandler>:
 8000256:	e7fe      	b.n	8000256 <DMA2_Stream0_IRQHandler>

08000258 <DMA2_Stream1_IRQHandler>:
 8000258:	e7fe      	b.n	8000258 <DMA2_Stream1_IRQHandler>

0800025a <DMA2_Stream2_IRQHandler>:
 800025a:	e7fe      	b.n	800025a <DMA2_Stream2_IRQHandler>

0800025c <DMA2_Stream3_IRQHandler>:
 800025c:	e7fe      	b.n	800025c <DMA2_Stream3_IRQHandler>

0800025e <DMA2_Stream4_IRQHandler>:
 800025e:	e7fe      	b.n	800025e <DMA2_Stream4_IRQHandler>

08000260 <ETH_IRQHandler>:
 8000260:	e7fe      	b.n	8000260 <ETH_IRQHandler>

08000262 <ETH_WKUP_IRQHandler>:
 8000262:	e7fe      	b.n	8000262 <ETH_WKUP_IRQHandler>

08000264 <CAN2_TX_IRQHandler>:
 8000264:	e7fe      	b.n	8000264 <CAN2_TX_IRQHandler>

08000266 <CAN2_RX0_IRQHandler>:
 8000266:	e7fe      	b.n	8000266 <CAN2_RX0_IRQHandler>

08000268 <CAN2_RX1_IRQHandler>:
 8000268:	e7fe      	b.n	8000268 <CAN2_RX1_IRQHandler>

0800026a <CAN2_SCE_IRQHandler>:
 800026a:	e7fe      	b.n	800026a <CAN2_SCE_IRQHandler>

0800026c <OTG_FS_IRQHandler>:
 800026c:	e7fe      	b.n	800026c <OTG_FS_IRQHandler>

0800026e <DMA2_Stream5_IRQHandler>:
 800026e:	e7fe      	b.n	800026e <DMA2_Stream5_IRQHandler>

08000270 <DMA2_Stream6_IRQHandler>:
 8000270:	e7fe      	b.n	8000270 <DMA2_Stream6_IRQHandler>

08000272 <DMA2_Stream7_IRQHandler>:
 8000272:	e7fe      	b.n	8000272 <DMA2_Stream7_IRQHandler>

08000274 <USART6_IRQHandler>:
 8000274:	e7fe      	b.n	8000274 <USART6_IRQHandler>

08000276 <I2C3_EV_IRQHandler>:
 8000276:	e7fe      	b.n	8000276 <I2C3_EV_IRQHandler>

08000278 <I2C3_ER_IRQHandler>:
 8000278:	e7fe      	b.n	8000278 <I2C3_ER_IRQHandler>

0800027a <OTG_HS_EP1_OUT_IRQHandler>:
 800027a:	e7fe      	b.n	800027a <OTG_HS_EP1_OUT_IRQHandler>

0800027c <OTG_HS_EP1_IN_IRQHandler>:
 800027c:	e7fe      	b.n	800027c <OTG_HS_EP1_IN_IRQHandler>

0800027e <OTG_HS_WKUP_IRQHandler>:
 800027e:	e7fe      	b.n	800027e <OTG_HS_WKUP_IRQHandler>

08000280 <OTG_HS_IRQHandler>:
 8000280:	e7fe      	b.n	8000280 <OTG_HS_IRQHandler>

08000282 <DCMI_IRQHandler>:
 8000282:	e7fe      	b.n	8000282 <DCMI_IRQHandler>

08000284 <CRYP_IRQHandler>:
 8000284:	e7fe      	b.n	8000284 <CRYP_IRQHandler>

08000286 <HASH_RNG_IRQHandler>:
 8000286:	e7fe      	b.n	8000286 <HASH_RNG_IRQHandler>

08000288 <FPU_IRQHandler>:
 8000288:	e7fe      	b.n	8000288 <FPU_IRQHandler>
 800028a:	bf00      	nop

0800028c <SYSCFG_DeInit>:
 800028c:	b508      	push	{r3, lr}
 800028e:	2101      	movs	r1, #1
 8000290:	f44f 4080 	mov.w	r0, #16384	; 0x4000
 8000294:	f000 fdd6 	bl	8000e44 <RCC_APB2PeriphResetCmd>
 8000298:	2100      	movs	r1, #0
 800029a:	f44f 4080 	mov.w	r0, #16384	; 0x4000
 800029e:	e8bd 4008 	ldmia.w	sp!, {r3, lr}
 80002a2:	f000 bdcf 	b.w	8000e44 <RCC_APB2PeriphResetCmd>
 80002a6:	bf00      	nop

080002a8 <SYSCFG_MemoryRemapConfig>:
 80002a8:	4b01      	ldr	r3, [pc, #4]	; (80002b0 <SYSCFG_MemoryRemapConfig+0x8>)
 80002aa:	6018      	str	r0, [r3, #0]
 80002ac:	4770      	bx	lr
 80002ae:	bf00      	nop
 80002b0:	40013800 	.word	0x40013800

080002b4 <SYSCFG_MemorySwappingBank>:
 80002b4:	4b01      	ldr	r3, [pc, #4]	; (80002bc <SYSCFG_MemorySwappingBank+0x8>)
 80002b6:	6018      	str	r0, [r3, #0]
 80002b8:	4770      	bx	lr
 80002ba:	bf00      	nop
 80002bc:	42270020 	.word	0x42270020

080002c0 <SYSCFG_EXTILineConfig>:
 80002c0:	f001 03fc 	and.w	r3, r1, #252	; 0xfc
 80002c4:	f103 4380 	add.w	r3, r3, #1073741824	; 0x40000000
 80002c8:	f503 339c 	add.w	r3, r3, #79872	; 0x13800
 80002cc:	f001 0103 	and.w	r1, r1, #3
 80002d0:	b410      	push	{r4}
 80002d2:	0089      	lsls	r1, r1, #2
 80002d4:	689c      	ldr	r4, [r3, #8]
 80002d6:	220f      	movs	r2, #15
 80002d8:	408a      	lsls	r2, r1
 80002da:	ea24 0202 	bic.w	r2, r4, r2
 80002de:	609a      	str	r2, [r3, #8]
 80002e0:	689a      	ldr	r2, [r3, #8]
 80002e2:	f85d 4b04 	ldr.w	r4, [sp], #4
 80002e6:	4088      	lsls	r0, r1
 80002e8:	4310      	orrs	r0, r2
 80002ea:	6098      	str	r0, [r3, #8]
 80002ec:	4770      	bx	lr
 80002ee:	bf00      	nop

080002f0 <SYSCFG_ETH_MediaInterfaceConfig>:
 80002f0:	4b01      	ldr	r3, [pc, #4]	; (80002f8 <SYSCFG_ETH_MediaInterfaceConfig+0x8>)
 80002f2:	6018      	str	r0, [r3, #0]
 80002f4:	4770      	bx	lr
 80002f6:	bf00      	nop
 80002f8:	422700dc 	.word	0x422700dc

080002fc <SYSCFG_CompensationCellCmd>:
 80002fc:	4b01      	ldr	r3, [pc, #4]	; (8000304 <SYSCFG_CompensationCellCmd+0x8>)
 80002fe:	6018      	str	r0, [r3, #0]
 8000300:	4770      	bx	lr
 8000302:	bf00      	nop
 8000304:	42270400 	.word	0x42270400

08000308 <SYSCFG_GetCompensationCellStatus>:
 8000308:	4b02      	ldr	r3, [pc, #8]	; (8000314 <SYSCFG_GetCompensationCellStatus+0xc>)
 800030a:	6a18      	ldr	r0, [r3, #32]
 800030c:	f3c0 2000 	ubfx	r0, r0, #8, #1
 8000310:	4770      	bx	lr
 8000312:	bf00      	nop
 8000314:	40013800 	.word	0x40013800

08000318 <SchlossBox_step>:
 8000318:	e92d 4ff0 	stmdb	sp!, {r4, r5, r6, r7, r8, r9, sl, fp, lr}
 800031c:	4bbe      	ldr	r3, [pc, #760]	; (8000618 <SchlossBox_step+0x300>)
 800031e:	4cbf      	ldr	r4, [pc, #764]	; (800061c <SchlossBox_step+0x304>)
 8000320:	681e      	ldr	r6, [r3, #0]
 8000322:	4abf      	ldr	r2, [pc, #764]	; (8000620 <SchlossBox_step+0x308>)
 8000324:	4dbf      	ldr	r5, [pc, #764]	; (8000624 <SchlossBox_step+0x30c>)
 8000326:	ed2d 8b02 	vpush	{d8}
 800032a:	3304      	adds	r3, #4
 800032c:	b2f6      	uxtb	r6, r6
 800032e:	681b      	ldr	r3, [r3, #0]
 8000330:	f884 3021 	strb.w	r3, [r4, #33]	; 0x21
 8000334:	b083      	sub	sp, #12
 8000336:	4630      	mov	r0, r6
 8000338:	f104 0134 	add.w	r1, r4, #52	; 0x34
 800033c:	2302      	movs	r3, #2
 800033e:	f884 6020 	strb.w	r6, [r4, #32]
 8000342:	f003 f9cd 	bl	80036e0 <SchlossBox_Debounce>
 8000346:	f104 0124 	add.w	r1, r4, #36	; 0x24
 800034a:	4ab7      	ldr	r2, [pc, #732]	; (8000628 <SchlossBox_step+0x310>)
 800034c:	4eb7      	ldr	r6, [pc, #732]	; (800062c <SchlossBox_step+0x314>)
 800034e:	2302      	movs	r3, #2
 8000350:	4607      	mov	r7, r0
 8000352:	f894 0021 	ldrb.w	r0, [r4, #33]	; 0x21
 8000356:	f003 f9c3 	bl	80036e0 <SchlossBox_Debounce>
 800035a:	4680      	mov	r8, r0
 800035c:	4628      	mov	r0, r5
 800035e:	f002 fc01 	bl	8002b64 <CANReceive_GetMsg>
 8000362:	682b      	ldr	r3, [r5, #0]
 8000364:	4ab2      	ldr	r2, [pc, #712]	; (8000630 <SchlossBox_step+0x318>)
 8000366:	7ae9      	ldrb	r1, [r5, #11]
 8000368:	6123      	str	r3, [r4, #16]
 800036a:	f105 030b 	add.w	r3, r5, #11
 800036e:	4db1      	ldr	r5, [pc, #708]	; (8000634 <SchlossBox_step+0x31c>)
 8000370:	8320      	strh	r0, [r4, #24]
 8000372:	4630      	mov	r0, r6
 8000374:	6013      	str	r3, [r2, #0]
 8000376:	7721      	strb	r1, [r4, #28]
 8000378:	f002 fd04 	bl	8002d84 <CANReceive1_GetMsg>
 800037c:	f895 9014 	ldrb.w	r9, [r5, #20]
 8000380:	6832      	ldr	r2, [r6, #0]
 8000382:	4bad      	ldr	r3, [pc, #692]	; (8000638 <SchlossBox_step+0x320>)
 8000384:	6162      	str	r2, [r4, #20]
 8000386:	f1b9 0f7e 	cmp.w	r9, #126	; 0x7e
 800038a:	f106 020b 	add.w	r2, r6, #11
 800038e:	7af6      	ldrb	r6, [r6, #11]
 8000390:	8360      	strh	r0, [r4, #26]
 8000392:	7766      	strb	r6, [r4, #29]
 8000394:	601a      	str	r2, [r3, #0]
 8000396:	d805      	bhi.n	80003a4 <SchlossBox_step+0x8c>
 8000398:	f109 0901 	add.w	r9, r9, #1
 800039c:	fa5f f989 	uxtb.w	r9, r9
 80003a0:	f885 9014 	strb.w	r9, [r5, #20]
 80003a4:	7c2b      	ldrb	r3, [r5, #16]
 80003a6:	f8df e28c 	ldr.w	lr, [pc, #652]	; 8000634 <SchlossBox_step+0x31c>
 80003aa:	2b00      	cmp	r3, #0
 80003ac:	f040 80d5 	bne.w	800055a <SchlossBox_step+0x242>
 80003b0:	e9d4 6702 	ldrd	r6, r7, [r4, #8]
 80003b4:	f04f 0c01 	mov.w	ip, #1
 80003b8:	f8df 9280 	ldr.w	r9, [pc, #640]	; 800063c <SchlossBox_step+0x324>
 80003bc:	f884 3022 	strb.w	r3, [r4, #34]	; 0x22
 80003c0:	f04f 0800 	mov.w	r8, #0
 80003c4:	4630      	mov	r0, r6
 80003c6:	4639      	mov	r1, r7
 80003c8:	2200      	movs	r2, #0
 80003ca:	2300      	movs	r3, #0
 80003cc:	f88e c010 	strb.w	ip, [lr, #16]
 80003d0:	f88e c011 	strb.w	ip, [lr, #17]
 80003d4:	f88e c012 	strb.w	ip, [lr, #18]
 80003d8:	e9c4 8900 	strd	r8, r9, [r4]
 80003dc:	f004 f9a6 	bl	800472c <__aeabi_dcmpge>
 80003e0:	2800      	cmp	r0, #0
 80003e2:	f000 8116 	beq.w	8000612 <SchlossBox_step+0x2fa>
 80003e6:	2200      	movs	r2, #0
 80003e8:	4b94      	ldr	r3, [pc, #592]	; (800063c <SchlossBox_step+0x324>)
 80003ea:	4630      	mov	r0, r6
 80003ec:	4639      	mov	r1, r7
 80003ee:	f004 f993 	bl	8004718 <__aeabi_dcmple>
 80003f2:	2800      	cmp	r0, #0
 80003f4:	f000 80f2 	beq.w	80005dc <SchlossBox_step+0x2c4>
 80003f8:	4630      	mov	r0, r6
 80003fa:	4639      	mov	r1, r7
 80003fc:	f004 f9c0 	bl	8004780 <__aeabi_d2iz>
 8000400:	4b8f      	ldr	r3, [pc, #572]	; (8000640 <SchlossBox_step+0x328>)
 8000402:	eb03 00c0 	add.w	r0, r3, r0, lsl #3
 8000406:	ed90 0b00 	vldr	d0, [r0]
 800040a:	f003 fb19 	bl	8003a40 <floor>
 800040e:	eeb0 8a40 	vmov.f32	s16, s0
 8000412:	eef0 8a60 	vmov.f32	s17, s1
 8000416:	f002 ff7f 	bl	8003318 <rtIsNaN>
 800041a:	2800      	cmp	r0, #0
 800041c:	f000 8120 	beq.w	8000660 <SchlossBox_step+0x348>
 8000420:	f04f 0a00 	mov.w	sl, #0
 8000424:	e9d4 6702 	ldrd	r6, r7, [r4, #8]
 8000428:	e9d5 8900 	ldrd	r8, r9, [r5]
 800042c:	4630      	mov	r0, r6
 800042e:	4639      	mov	r1, r7
 8000430:	4642      	mov	r2, r8
 8000432:	464b      	mov	r3, r9
 8000434:	f884 a01e 	strb.w	sl, [r4, #30]
 8000438:	f04f 0b01 	mov.w	fp, #1
 800043c:	f004 f958 	bl	80046f0 <__aeabi_dcmpeq>
 8000440:	b108      	cbz	r0, 8000446 <SchlossBox_step+0x12e>
 8000442:	f04f 0b00 	mov.w	fp, #0
 8000446:	4642      	mov	r2, r8
 8000448:	464b      	mov	r3, r9
 800044a:	4630      	mov	r0, r6
 800044c:	4639      	mov	r1, r7
 800044e:	f004 f94f 	bl	80046f0 <__aeabi_dcmpeq>
 8000452:	fa5f fb8b 	uxtb.w	fp, fp
 8000456:	4602      	mov	r2, r0
 8000458:	f8df 9200 	ldr.w	r9, [pc, #512]	; 800065c <SchlossBox_step+0x344>
 800045c:	b958      	cbnz	r0, 8000476 <SchlossBox_step+0x15e>
 800045e:	f899 3001 	ldrb.w	r3, [r9, #1]
 8000462:	2b01      	cmp	r3, #1
 8000464:	d007      	beq.n	8000476 <SchlossBox_step+0x15e>
 8000466:	4977      	ldr	r1, [pc, #476]	; (8000644 <SchlossBox_step+0x32c>)
 8000468:	ed9f 0a77 	vldr	s0, [pc, #476]	; 8000648 <SchlossBox_step+0x330>
 800046c:	4877      	ldr	r0, [pc, #476]	; (800064c <SchlossBox_step+0x334>)
 800046e:	f881 a00b 	strb.w	sl, [r1, #11]
 8000472:	f001 fdd9 	bl	8002028 <CANx_Transmit>
 8000476:	e9d4 6700 	ldrd	r6, r7, [r4]
 800047a:	2200      	movs	r2, #0
 800047c:	2300      	movs	r3, #0
 800047e:	4630      	mov	r0, r6
 8000480:	4639      	mov	r1, r7
 8000482:	f889 b001 	strb.w	fp, [r9, #1]
 8000486:	f004 f951 	bl	800472c <__aeabi_dcmpge>
 800048a:	b908      	cbnz	r0, 8000490 <SchlossBox_step+0x178>
 800048c:	2600      	movs	r6, #0
 800048e:	2700      	movs	r7, #0
 8000490:	2200      	movs	r2, #0
 8000492:	4b6a      	ldr	r3, [pc, #424]	; (800063c <SchlossBox_step+0x324>)
 8000494:	f8df 81a8 	ldr.w	r8, [pc, #424]	; 8000640 <SchlossBox_step+0x328>
 8000498:	4630      	mov	r0, r6
 800049a:	4639      	mov	r1, r7
 800049c:	f004 f93c 	bl	8004718 <__aeabi_dcmple>
 80004a0:	b908      	cbnz	r0, 80004a6 <SchlossBox_step+0x18e>
 80004a2:	4f66      	ldr	r7, [pc, #408]	; (800063c <SchlossBox_step+0x324>)
 80004a4:	2600      	movs	r6, #0
 80004a6:	4639      	mov	r1, r7
 80004a8:	4630      	mov	r0, r6
 80004aa:	f004 f969 	bl	8004780 <__aeabi_d2iz>
 80004ae:	eb08 00c0 	add.w	r0, r8, r0, lsl #3
 80004b2:	ed90 0b00 	vldr	d0, [r0]
 80004b6:	f003 fac3 	bl	8003a40 <floor>
 80004ba:	eeb0 8a40 	vmov.f32	s16, s0
 80004be:	eef0 8a60 	vmov.f32	s17, s1
 80004c2:	f002 ff29 	bl	8003318 <rtIsNaN>
 80004c6:	2800      	cmp	r0, #0
 80004c8:	f000 80f0 	beq.w	80006ac <SchlossBox_step+0x394>
 80004cc:	2300      	movs	r3, #0
 80004ce:	461f      	mov	r7, r3
 80004d0:	ed94 7b00 	vldr	d7, [r4]
 80004d4:	e9d5 ab02 	ldrd	sl, fp, [r5, #8]
 80004d8:	ec51 0b17 	vmov	r0, r1, d7
 80004dc:	4652      	mov	r2, sl
 80004de:	465b      	mov	r3, fp
 80004e0:	ed8d 7b00 	vstr	d7, [sp]
 80004e4:	77e7      	strb	r7, [r4, #31]
 80004e6:	f04f 0801 	mov.w	r8, #1
 80004ea:	f004 f901 	bl	80046f0 <__aeabi_dcmpeq>
 80004ee:	b108      	cbz	r0, 80004f4 <SchlossBox_step+0x1dc>
 80004f0:	f04f 0800 	mov.w	r8, #0
 80004f4:	4652      	mov	r2, sl
 80004f6:	465b      	mov	r3, fp
 80004f8:	e9dd 0100 	ldrd	r0, r1, [sp]
 80004fc:	f004 f8f8 	bl	80046f0 <__aeabi_dcmpeq>
 8000500:	fa5f f888 	uxtb.w	r8, r8
 8000504:	4602      	mov	r2, r0
 8000506:	b970      	cbnz	r0, 8000526 <SchlossBox_step+0x20e>
 8000508:	f899 3000 	ldrb.w	r3, [r9]
 800050c:	2b01      	cmp	r3, #1
 800050e:	d00a      	beq.n	8000526 <SchlossBox_step+0x20e>
 8000510:	494f      	ldr	r1, [pc, #316]	; (8000650 <SchlossBox_step+0x338>)
 8000512:	ed9f 0a4d 	vldr	s0, [pc, #308]	; 8000648 <SchlossBox_step+0x330>
 8000516:	484d      	ldr	r0, [pc, #308]	; (800064c <SchlossBox_step+0x334>)
 8000518:	72cf      	strb	r7, [r1, #11]
 800051a:	f001 fd85 	bl	8002028 <CANx_Transmit>
 800051e:	ed94 7b00 	vldr	d7, [r4]
 8000522:	ed8d 7b00 	vstr	d7, [sp]
 8000526:	e9dd 6700 	ldrd	r6, r7, [sp]
 800052a:	4b4a      	ldr	r3, [pc, #296]	; (8000654 <SchlossBox_step+0x33c>)
 800052c:	f894 2022 	ldrb.w	r2, [r4, #34]	; 0x22
 8000530:	f889 8000 	strb.w	r8, [r9]
 8000534:	4639      	mov	r1, r7
 8000536:	601a      	str	r2, [r3, #0]
 8000538:	4630      	mov	r0, r6
 800053a:	f004 f949 	bl	80047d0 <__aeabi_d2uiz>
 800053e:	e9d4 2302 	ldrd	r2, r3, [r4, #8]
 8000542:	4945      	ldr	r1, [pc, #276]	; (8000658 <SchlossBox_step+0x340>)
 8000544:	b2c0      	uxtb	r0, r0
 8000546:	e9c5 6702 	strd	r6, r7, [r5, #8]
 800054a:	6008      	str	r0, [r1, #0]
 800054c:	e9c5 2300 	strd	r2, r3, [r5]
 8000550:	b003      	add	sp, #12
 8000552:	ecbd 8b02 	vpop	{d8}
 8000556:	e8bd 8ff0 	ldmia.w	sp!, {r4, r5, r6, r7, r8, r9, sl, fp, pc}
 800055a:	f89e 3011 	ldrb.w	r3, [lr, #17]
 800055e:	2b01      	cmp	r3, #1
 8000560:	f000 80ca 	beq.w	80006f8 <SchlossBox_step+0x3e0>
 8000564:	2f00      	cmp	r7, #0
 8000566:	d03c      	beq.n	80005e2 <SchlossBox_step+0x2ca>
 8000568:	f89e 3012 	ldrb.w	r3, [lr, #18]
 800056c:	4933      	ldr	r1, [pc, #204]	; (800063c <SchlossBox_step+0x324>)
 800056e:	2201      	movs	r2, #1
 8000570:	2000      	movs	r0, #0
 8000572:	4293      	cmp	r3, r2
 8000574:	e9c4 0100 	strd	r0, r1, [r4]
 8000578:	f88e 2011 	strb.w	r2, [lr, #17]
 800057c:	f000 80e9 	beq.w	8000752 <SchlossBox_step+0x43a>
 8000580:	7cee      	ldrb	r6, [r5, #19]
 8000582:	4f2c      	ldr	r7, [pc, #176]	; (8000634 <SchlossBox_step+0x31c>)
 8000584:	2e01      	cmp	r6, #1
 8000586:	f000 80fa 	beq.w	800077e <SchlossBox_step+0x466>
 800058a:	f04f 0800 	mov.w	r8, #0
 800058e:	f04f 0900 	mov.w	r9, #0
 8000592:	f8df b0a8 	ldr.w	fp, [pc, #168]	; 800063c <SchlossBox_step+0x324>
 8000596:	4e21      	ldr	r6, [pc, #132]	; (800061c <SchlossBox_step+0x304>)
 8000598:	f04f 0a00 	mov.w	sl, #0
 800059c:	4642      	mov	r2, r8
 800059e:	464b      	mov	r3, r9
 80005a0:	e9d4 0100 	ldrd	r0, r1, [r4]
 80005a4:	e9c4 ab02 	strd	sl, fp, [r4, #8]
 80005a8:	f004 f8a2 	bl	80046f0 <__aeabi_dcmpeq>
 80005ac:	2800      	cmp	r0, #0
 80005ae:	f000 80ce 	beq.w	800074e <SchlossBox_step+0x436>
 80005b2:	7f33      	ldrb	r3, [r6, #28]
 80005b4:	07db      	lsls	r3, r3, #31
 80005b6:	f140 80ca 	bpl.w	800074e <SchlossBox_step+0x436>
 80005ba:	f896 3022 	ldrb.w	r3, [r6, #34]	; 0x22
 80005be:	fab3 f383 	clz	r3, r3
 80005c2:	095b      	lsrs	r3, r3, #5
 80005c4:	2201      	movs	r2, #1
 80005c6:	e9c6 8902 	strd	r8, r9, [r6, #8]
 80005ca:	f04f 0800 	mov.w	r8, #0
 80005ce:	f886 3022 	strb.w	r3, [r6, #34]	; 0x22
 80005d2:	74fa      	strb	r2, [r7, #19]
 80005d4:	f887 8014 	strb.w	r8, [r7, #20]
 80005d8:	4640      	mov	r0, r8
 80005da:	e711      	b.n	8000400 <SchlossBox_step+0xe8>
 80005dc:	2600      	movs	r6, #0
 80005de:	4f17      	ldr	r7, [pc, #92]	; (800063c <SchlossBox_step+0x324>)
 80005e0:	e70a      	b.n	80003f8 <SchlossBox_step+0xe0>
 80005e2:	7cab      	ldrb	r3, [r5, #18]
 80005e4:	2b01      	cmp	r3, #1
 80005e6:	d1cb      	bne.n	8000580 <SchlossBox_step+0x268>
 80005e8:	2200      	movs	r2, #0
 80005ea:	4b14      	ldr	r3, [pc, #80]	; (800063c <SchlossBox_step+0x324>)
 80005ec:	4f0b      	ldr	r7, [pc, #44]	; (800061c <SchlossBox_step+0x304>)
 80005ee:	e9d4 0100 	ldrd	r0, r1, [r4]
 80005f2:	f004 f87d 	bl	80046f0 <__aeabi_dcmpeq>
 80005f6:	2800      	cmp	r0, #0
 80005f8:	f040 80ab 	bne.w	8000752 <SchlossBox_step+0x43a>
 80005fc:	e9d7 6702 	ldrd	r6, r7, [r7, #8]
 8000600:	2200      	movs	r2, #0
 8000602:	2300      	movs	r3, #0
 8000604:	4630      	mov	r0, r6
 8000606:	4639      	mov	r1, r7
 8000608:	f004 f890 	bl	800472c <__aeabi_dcmpge>
 800060c:	2800      	cmp	r0, #0
 800060e:	f47f aeea 	bne.w	80003e6 <SchlossBox_step+0xce>
 8000612:	2600      	movs	r6, #0
 8000614:	2700      	movs	r7, #0
 8000616:	e6e6      	b.n	80003e6 <SchlossBox_step+0xce>
 8000618:	42410200 	.word	0x42410200
 800061c:	20000960 	.word	0x20000960
 8000620:	20000944 	.word	0x20000944
 8000624:	20000a54 	.word	0x20000a54
 8000628:	20000928 	.word	0x20000928
 800062c:	20000b1c 	.word	0x20000b1c
 8000630:	200009b0 	.word	0x200009b0
 8000634:	20000910 	.word	0x20000910
 8000638:	20000a68 	.word	0x20000a68
 800063c:	3ff00000 	.word	0x3ff00000
 8000640:	08005350 	.word	0x08005350
 8000644:	20001198 	.word	0x20001198
 8000648:	3ba3d70a 	.word	0x3ba3d70a
 800064c:	40006400 	.word	0x40006400
 8000650:	20000b30 	.word	0x20000b30
 8000654:	42410288 	.word	0x42410288
 8000658:	4241028c 	.word	0x4241028c
 800065c:	20000908 	.word	0x20000908
 8000660:	eeb0 0a48 	vmov.f32	s0, s16
 8000664:	eef0 0a68 	vmov.f32	s1, s17
 8000668:	f002 fe1a 	bl	80032a0 <rtIsInf>
 800066c:	2800      	cmp	r0, #0
 800066e:	f47f aed7 	bne.w	8000420 <SchlossBox_step+0x108>
 8000672:	eeb0 0a48 	vmov.f32	s0, s16
 8000676:	eef0 0a68 	vmov.f32	s1, s17
 800067a:	ed9f 1b61 	vldr	d1, [pc, #388]	; 8000800 <SchlossBox_step+0x4e8>
 800067e:	f003 fa6f 	bl	8003b60 <fmod>
 8000682:	ec57 6b10 	vmov	r6, r7, d0
 8000686:	2200      	movs	r2, #0
 8000688:	2300      	movs	r3, #0
 800068a:	ee10 0a10 	vmov	r0, s0
 800068e:	4639      	mov	r1, r7
 8000690:	f004 f838 	bl	8004704 <__aeabi_dcmplt>
 8000694:	2800      	cmp	r0, #0
 8000696:	f000 80a4 	beq.w	80007e2 <SchlossBox_step+0x4ca>
 800069a:	4630      	mov	r0, r6
 800069c:	f107 4100 	add.w	r1, r7, #2147483648	; 0x80000000
 80006a0:	f004 f896 	bl	80047d0 <__aeabi_d2uiz>
 80006a4:	4240      	negs	r0, r0
 80006a6:	fa5f fa80 	uxtb.w	sl, r0
 80006aa:	e6bb      	b.n	8000424 <SchlossBox_step+0x10c>
 80006ac:	eeb0 0a48 	vmov.f32	s0, s16
 80006b0:	eef0 0a68 	vmov.f32	s1, s17
 80006b4:	f002 fdf4 	bl	80032a0 <rtIsInf>
 80006b8:	2800      	cmp	r0, #0
 80006ba:	f47f af07 	bne.w	80004cc <SchlossBox_step+0x1b4>
 80006be:	eeb0 0a48 	vmov.f32	s0, s16
 80006c2:	eef0 0a68 	vmov.f32	s1, s17
 80006c6:	ed9f 1b4e 	vldr	d1, [pc, #312]	; 8000800 <SchlossBox_step+0x4e8>
 80006ca:	f003 fa49 	bl	8003b60 <fmod>
 80006ce:	ec57 6b10 	vmov	r6, r7, d0
 80006d2:	2200      	movs	r2, #0
 80006d4:	2300      	movs	r3, #0
 80006d6:	ee10 0a10 	vmov	r0, s0
 80006da:	4639      	mov	r1, r7
 80006dc:	f004 f812 	bl	8004704 <__aeabi_dcmplt>
 80006e0:	2800      	cmp	r0, #0
 80006e2:	f000 8085 	beq.w	80007f0 <SchlossBox_step+0x4d8>
 80006e6:	f107 4100 	add.w	r1, r7, #2147483648	; 0x80000000
 80006ea:	4630      	mov	r0, r6
 80006ec:	f004 f870 	bl	80047d0 <__aeabi_d2uiz>
 80006f0:	4240      	negs	r0, r0
 80006f2:	b2c3      	uxtb	r3, r0
 80006f4:	461f      	mov	r7, r3
 80006f6:	e6eb      	b.n	80004d0 <SchlossBox_step+0x1b8>
 80006f8:	2f00      	cmp	r7, #0
 80006fa:	f43f af72 	beq.w	80005e2 <SchlossBox_step+0x2ca>
 80006fe:	f89e 3012 	ldrb.w	r3, [lr, #18]
 8000702:	2202      	movs	r2, #2
 8000704:	2600      	movs	r6, #0
 8000706:	2700      	movs	r7, #0
 8000708:	2b01      	cmp	r3, #1
 800070a:	f88e 2011 	strb.w	r2, [lr, #17]
 800070e:	e9c4 6700 	strd	r6, r7, [r4]
 8000712:	4a3d      	ldr	r2, [pc, #244]	; (8000808 <SchlossBox_step+0x4f0>)
 8000714:	f47f af34 	bne.w	8000580 <SchlossBox_step+0x268>
 8000718:	e9d2 8902 	ldrd	r8, r9, [r2, #8]
 800071c:	463b      	mov	r3, r7
 800071e:	4632      	mov	r2, r6
 8000720:	4640      	mov	r0, r8
 8000722:	4649      	mov	r1, r9
 8000724:	f004 f802 	bl	800472c <__aeabi_dcmpge>
 8000728:	b908      	cbnz	r0, 800072e <SchlossBox_step+0x416>
 800072a:	46b0      	mov	r8, r6
 800072c:	46b9      	mov	r9, r7
 800072e:	2200      	movs	r2, #0
 8000730:	4b36      	ldr	r3, [pc, #216]	; (800080c <SchlossBox_step+0x4f4>)
 8000732:	4640      	mov	r0, r8
 8000734:	4649      	mov	r1, r9
 8000736:	f003 ffef 	bl	8004718 <__aeabi_dcmple>
 800073a:	b918      	cbnz	r0, 8000744 <SchlossBox_step+0x42c>
 800073c:	f8df 90cc 	ldr.w	r9, [pc, #204]	; 800080c <SchlossBox_step+0x4f4>
 8000740:	f04f 0800 	mov.w	r8, #0
 8000744:	4640      	mov	r0, r8
 8000746:	4649      	mov	r1, r9
 8000748:	f004 f81a 	bl	8004780 <__aeabi_d2iz>
 800074c:	e658      	b.n	8000400 <SchlossBox_step+0xe8>
 800074e:	2001      	movs	r0, #1
 8000750:	e656      	b.n	8000400 <SchlossBox_step+0xe8>
 8000752:	2e00      	cmp	r6, #0
 8000754:	d139      	bne.n	80007ca <SchlossBox_step+0x4b2>
 8000756:	f894 3022 	ldrb.w	r3, [r4, #34]	; 0x22
 800075a:	752e      	strb	r6, [r5, #20]
 800075c:	fab3 f383 	clz	r3, r3
 8000760:	f04f 0800 	mov.w	r8, #0
 8000764:	f04f 0900 	mov.w	r9, #0
 8000768:	095b      	lsrs	r3, r3, #5
 800076a:	2102      	movs	r1, #2
 800076c:	2201      	movs	r2, #1
 800076e:	4630      	mov	r0, r6
 8000770:	f884 3022 	strb.w	r3, [r4, #34]	; 0x22
 8000774:	e9c4 8902 	strd	r8, r9, [r4, #8]
 8000778:	74a9      	strb	r1, [r5, #18]
 800077a:	74ea      	strb	r2, [r5, #19]
 800077c:	e640      	b.n	8000400 <SchlossBox_step+0xe8>
 800077e:	2200      	movs	r2, #0
 8000780:	2300      	movs	r3, #0
 8000782:	f8df a084 	ldr.w	sl, [pc, #132]	; 8000808 <SchlossBox_step+0x4f0>
 8000786:	e9c4 2302 	strd	r2, r3, [r4, #8]
 800078a:	f1b8 0f00 	cmp.w	r8, #0
 800078e:	d009      	beq.n	80007a4 <SchlossBox_step+0x48c>
 8000790:	f8df 9078 	ldr.w	r9, [pc, #120]	; 800080c <SchlossBox_step+0x4f4>
 8000794:	f04f 0800 	mov.w	r8, #0
 8000798:	2302      	movs	r3, #2
 800079a:	4630      	mov	r0, r6
 800079c:	e9ca 8902 	strd	r8, r9, [sl, #8]
 80007a0:	74fb      	strb	r3, [r7, #19]
 80007a2:	e62d      	b.n	8000400 <SchlossBox_step+0xe8>
 80007a4:	e9da 0100 	ldrd	r0, r1, [sl]
 80007a8:	f003 ffa2 	bl	80046f0 <__aeabi_dcmpeq>
 80007ac:	b980      	cbnz	r0, 80007d0 <SchlossBox_step+0x4b8>
 80007ae:	f1b9 0f63 	cmp.w	r9, #99	; 0x63
 80007b2:	d914      	bls.n	80007de <SchlossBox_step+0x4c6>
 80007b4:	f89a 3022 	ldrb.w	r3, [sl, #34]	; 0x22
 80007b8:	f887 8014 	strb.w	r8, [r7, #20]
 80007bc:	fab3 f383 	clz	r3, r3
 80007c0:	095b      	lsrs	r3, r3, #5
 80007c2:	4640      	mov	r0, r8
 80007c4:	f88a 3022 	strb.w	r3, [sl, #34]	; 0x22
 80007c8:	e61a      	b.n	8000400 <SchlossBox_step+0xe8>
 80007ca:	e9d4 6702 	ldrd	r6, r7, [r4, #8]
 80007ce:	e717      	b.n	8000600 <SchlossBox_step+0x2e8>
 80007d0:	f887 8013 	strb.w	r8, [r7, #19]
 80007d4:	74be      	strb	r6, [r7, #18]
 80007d6:	f88a 8022 	strb.w	r8, [sl, #34]	; 0x22
 80007da:	4640      	mov	r0, r8
 80007dc:	e610      	b.n	8000400 <SchlossBox_step+0xe8>
 80007de:	4640      	mov	r0, r8
 80007e0:	e60e      	b.n	8000400 <SchlossBox_step+0xe8>
 80007e2:	4630      	mov	r0, r6
 80007e4:	4639      	mov	r1, r7
 80007e6:	f003 fff3 	bl	80047d0 <__aeabi_d2uiz>
 80007ea:	fa5f fa80 	uxtb.w	sl, r0
 80007ee:	e619      	b.n	8000424 <SchlossBox_step+0x10c>
 80007f0:	4639      	mov	r1, r7
 80007f2:	4630      	mov	r0, r6
 80007f4:	f003 ffec 	bl	80047d0 <__aeabi_d2uiz>
 80007f8:	b2c3      	uxtb	r3, r0
 80007fa:	461f      	mov	r7, r3
 80007fc:	e668      	b.n	80004d0 <SchlossBox_step+0x1b8>
 80007fe:	bf00      	nop
 8000800:	00000000 	.word	0x00000000
 8000804:	40700000 	.word	0x40700000
 8000808:	20000960 	.word	0x20000960
 800080c:	3ff00000 	.word	0x3ff00000

08000810 <SchlossBox_initialize>:
 8000810:	b510      	push	{r4, lr}
 8000812:	2008      	movs	r0, #8
 8000814:	f002 fd18 	bl	8003248 <rt_InitInfAndNaN>
 8000818:	2400      	movs	r4, #0
 800081a:	4b11      	ldr	r3, [pc, #68]	; (8000860 <SchlossBox_initialize+0x50>)
 800081c:	4811      	ldr	r0, [pc, #68]	; (8000864 <SchlossBox_initialize+0x54>)
 800081e:	601c      	str	r4, [r3, #0]
 8000820:	4621      	mov	r1, r4
 8000822:	2248      	movs	r2, #72	; 0x48
 8000824:	f004 f894 	bl	8004950 <memset>
 8000828:	4621      	mov	r1, r4
 800082a:	2250      	movs	r2, #80	; 0x50
 800082c:	480e      	ldr	r0, [pc, #56]	; (8000868 <SchlossBox_initialize+0x58>)
 800082e:	f004 f88f 	bl	8004950 <memset>
 8000832:	4b0e      	ldr	r3, [pc, #56]	; (800086c <SchlossBox_initialize+0x5c>)
 8000834:	2201      	movs	r2, #1
 8000836:	705a      	strb	r2, [r3, #1]
 8000838:	701a      	strb	r2, [r3, #0]
 800083a:	f002 f815 	bl	8002868 <enable_UARTSetup>
 800083e:	f002 f8db 	bl	80029f8 <enable_DigitalInput>
 8000842:	f002 f9d3 	bl	8002bec <enable_CANReceive>
 8000846:	f002 fae1 	bl	8002e0c <enable_CANReceive1>
 800084a:	f001 fc4f 	bl	80020ec <enable_CANTransmit>
 800084e:	f001 fc63 	bl	8002118 <enable_CANTransmit_b>
 8000852:	f002 fb81 	bl	8002f58 <enable_DigitalOutput>
 8000856:	e8bd 4010 	ldmia.w	sp!, {r4, lr}
 800085a:	f002 bba1 	b.w	8002fa0 <enable_CANSetup>
 800085e:	bf00      	nop
 8000860:	200009a8 	.word	0x200009a8
 8000864:	20000960 	.word	0x20000960
 8000868:	20000910 	.word	0x20000910
 800086c:	20000908 	.word	0x20000908

08000870 <SchlossBox_terminate>:
 8000870:	4770      	bx	lr
 8000872:	bf00      	nop

08000874 <PWR_DeInit>:
 8000874:	b508      	push	{r3, lr}
 8000876:	2101      	movs	r1, #1
 8000878:	f04f 5080 	mov.w	r0, #268435456	; 0x10000000
 800087c:	f000 fad4 	bl	8000e28 <RCC_APB1PeriphResetCmd>
 8000880:	2100      	movs	r1, #0
 8000882:	f04f 5080 	mov.w	r0, #268435456	; 0x10000000
 8000886:	e8bd 4008 	ldmia.w	sp!, {r3, lr}
 800088a:	f000 bacd 	b.w	8000e28 <RCC_APB1PeriphResetCmd>
 800088e:	bf00      	nop

08000890 <PWR_BackupAccessCmd>:
 8000890:	4b01      	ldr	r3, [pc, #4]	; (8000898 <PWR_BackupAccessCmd+0x8>)
 8000892:	6018      	str	r0, [r3, #0]
 8000894:	4770      	bx	lr
 8000896:	bf00      	nop
 8000898:	420e0020 	.word	0x420e0020

0800089c <PWR_PVDLevelConfig>:
 800089c:	4a03      	ldr	r2, [pc, #12]	; (80008ac <PWR_PVDLevelConfig+0x10>)
 800089e:	6813      	ldr	r3, [r2, #0]
 80008a0:	f023 03e0 	bic.w	r3, r3, #224	; 0xe0
 80008a4:	4318      	orrs	r0, r3
 80008a6:	6010      	str	r0, [r2, #0]
 80008a8:	4770      	bx	lr
 80008aa:	bf00      	nop
 80008ac:	40007000 	.word	0x40007000

080008b0 <PWR_PVDCmd>:
 80008b0:	4b01      	ldr	r3, [pc, #4]	; (80008b8 <PWR_PVDCmd+0x8>)
 80008b2:	6018      	str	r0, [r3, #0]
 80008b4:	4770      	bx	lr
 80008b6:	bf00      	nop
 80008b8:	420e0010 	.word	0x420e0010

080008bc <PWR_WakeUpPinCmd>:
 80008bc:	4b01      	ldr	r3, [pc, #4]	; (80008c4 <PWR_WakeUpPinCmd+0x8>)
 80008be:	6018      	str	r0, [r3, #0]
 80008c0:	4770      	bx	lr
 80008c2:	bf00      	nop
 80008c4:	420e00a0 	.word	0x420e00a0

080008c8 <PWR_BackupRegulatorCmd>:
 80008c8:	4b01      	ldr	r3, [pc, #4]	; (80008d0 <PWR_BackupRegulatorCmd+0x8>)
 80008ca:	6018      	str	r0, [r3, #0]
 80008cc:	4770      	bx	lr
 80008ce:	bf00      	nop
 80008d0:	420e00a4 	.word	0x420e00a4

080008d4 <PWR_MainRegulatorModeConfig>:
 80008d4:	4a03      	ldr	r2, [pc, #12]	; (80008e4 <PWR_MainRegulatorModeConfig+0x10>)
 80008d6:	6813      	ldr	r3, [r2, #0]
 80008d8:	f423 4340 	bic.w	r3, r3, #49152	; 0xc000
 80008dc:	4318      	orrs	r0, r3
 80008de:	6010      	str	r0, [r2, #0]
 80008e0:	4770      	bx	lr
 80008e2:	bf00      	nop
 80008e4:	40007000 	.word	0x40007000

080008e8 <PWR_OverDriveCmd>:
 80008e8:	4b01      	ldr	r3, [pc, #4]	; (80008f0 <PWR_OverDriveCmd+0x8>)
 80008ea:	6018      	str	r0, [r3, #0]
 80008ec:	4770      	bx	lr
 80008ee:	bf00      	nop
 80008f0:	420e0040 	.word	0x420e0040

080008f4 <PWR_OverDriveSWCmd>:
 80008f4:	4b01      	ldr	r3, [pc, #4]	; (80008fc <PWR_OverDriveSWCmd+0x8>)
 80008f6:	6018      	str	r0, [r3, #0]
 80008f8:	4770      	bx	lr
 80008fa:	bf00      	nop
 80008fc:	420e0044 	.word	0x420e0044

08000900 <PWR_UnderDriveCmd>:
 8000900:	4a05      	ldr	r2, [pc, #20]	; (8000918 <PWR_UnderDriveCmd+0x18>)
 8000902:	6813      	ldr	r3, [r2, #0]
 8000904:	b918      	cbnz	r0, 800090e <PWR_UnderDriveCmd+0xe>
 8000906:	f423 2340 	bic.w	r3, r3, #786432	; 0xc0000
 800090a:	6013      	str	r3, [r2, #0]
 800090c:	4770      	bx	lr
 800090e:	f443 2340 	orr.w	r3, r3, #786432	; 0xc0000
 8000912:	6013      	str	r3, [r2, #0]
 8000914:	4770      	bx	lr
 8000916:	bf00      	nop
 8000918:	40007000 	.word	0x40007000

0800091c <PWR_FlashPowerDownCmd>:
 800091c:	4b01      	ldr	r3, [pc, #4]	; (8000924 <PWR_FlashPowerDownCmd+0x8>)
 800091e:	6018      	str	r0, [r3, #0]
 8000920:	4770      	bx	lr
 8000922:	bf00      	nop
 8000924:	420e0024 	.word	0x420e0024

08000928 <PWR_EnterSTOPMode>:
 8000928:	b410      	push	{r4}
 800092a:	4c0d      	ldr	r4, [pc, #52]	; (8000960 <PWR_EnterSTOPMode+0x38>)
 800092c:	4a0d      	ldr	r2, [pc, #52]	; (8000964 <PWR_EnterSTOPMode+0x3c>)
 800092e:	6823      	ldr	r3, [r4, #0]
 8000930:	f423 6340 	bic.w	r3, r3, #3072	; 0xc00
 8000934:	f023 0303 	bic.w	r3, r3, #3
 8000938:	4318      	orrs	r0, r3
 800093a:	6020      	str	r0, [r4, #0]
 800093c:	6913      	ldr	r3, [r2, #16]
 800093e:	2901      	cmp	r1, #1
 8000940:	f043 0304 	orr.w	r3, r3, #4
 8000944:	6113      	str	r3, [r2, #16]
 8000946:	d008      	beq.n	800095a <PWR_EnterSTOPMode+0x32>
 8000948:	bf20      	wfe
 800094a:	4a06      	ldr	r2, [pc, #24]	; (8000964 <PWR_EnterSTOPMode+0x3c>)
 800094c:	f85d 4b04 	ldr.w	r4, [sp], #4
 8000950:	6913      	ldr	r3, [r2, #16]
 8000952:	f023 0304 	bic.w	r3, r3, #4
 8000956:	6113      	str	r3, [r2, #16]
 8000958:	4770      	bx	lr
 800095a:	bf30      	wfi
 800095c:	e7f5      	b.n	800094a <PWR_EnterSTOPMode+0x22>
 800095e:	bf00      	nop
 8000960:	40007000 	.word	0x40007000
 8000964:	e000ed00 	.word	0xe000ed00

08000968 <PWR_EnterUnderDriveSTOPMode>:
 8000968:	b410      	push	{r4}
 800096a:	4c0d      	ldr	r4, [pc, #52]	; (80009a0 <PWR_EnterUnderDriveSTOPMode+0x38>)
 800096c:	4a0d      	ldr	r2, [pc, #52]	; (80009a4 <PWR_EnterUnderDriveSTOPMode+0x3c>)
 800096e:	6823      	ldr	r3, [r4, #0]
 8000970:	f423 6340 	bic.w	r3, r3, #3072	; 0xc00
 8000974:	f023 0303 	bic.w	r3, r3, #3
 8000978:	4318      	orrs	r0, r3
 800097a:	6020      	str	r0, [r4, #0]
 800097c:	6913      	ldr	r3, [r2, #16]
 800097e:	2901      	cmp	r1, #1
 8000980:	f043 0304 	orr.w	r3, r3, #4
 8000984:	6113      	str	r3, [r2, #16]
 8000986:	d008      	beq.n	800099a <PWR_EnterUnderDriveSTOPMode+0x32>
 8000988:	bf20      	wfe
 800098a:	4a06      	ldr	r2, [pc, #24]	; (80009a4 <PWR_EnterUnderDriveSTOPMode+0x3c>)
 800098c:	f85d 4b04 	ldr.w	r4, [sp], #4
 8000990:	6913      	ldr	r3, [r2, #16]
 8000992:	f023 0304 	bic.w	r3, r3, #4
 8000996:	6113      	str	r3, [r2, #16]
 8000998:	4770      	bx	lr
 800099a:	bf30      	wfi
 800099c:	e7f5      	b.n	800098a <PWR_EnterUnderDriveSTOPMode+0x22>
 800099e:	bf00      	nop
 80009a0:	40007000 	.word	0x40007000
 80009a4:	e000ed00 	.word	0xe000ed00

080009a8 <PWR_EnterSTANDBYMode>:
 80009a8:	4905      	ldr	r1, [pc, #20]	; (80009c0 <PWR_EnterSTANDBYMode+0x18>)
 80009aa:	4a06      	ldr	r2, [pc, #24]	; (80009c4 <PWR_EnterSTANDBYMode+0x1c>)
 80009ac:	680b      	ldr	r3, [r1, #0]
 80009ae:	f043 0302 	orr.w	r3, r3, #2
 80009b2:	600b      	str	r3, [r1, #0]
 80009b4:	6913      	ldr	r3, [r2, #16]
 80009b6:	f043 0304 	orr.w	r3, r3, #4
 80009ba:	6113      	str	r3, [r2, #16]
 80009bc:	bf30      	wfi
 80009be:	4770      	bx	lr
 80009c0:	40007000 	.word	0x40007000
 80009c4:	e000ed00 	.word	0xe000ed00

080009c8 <PWR_GetFlagStatus>:
 80009c8:	4b03      	ldr	r3, [pc, #12]	; (80009d8 <PWR_GetFlagStatus+0x10>)
 80009ca:	685b      	ldr	r3, [r3, #4]
 80009cc:	4203      	tst	r3, r0
 80009ce:	bf14      	ite	ne
 80009d0:	2001      	movne	r0, #1
 80009d2:	2000      	moveq	r0, #0
 80009d4:	4770      	bx	lr
 80009d6:	bf00      	nop
 80009d8:	40007000 	.word	0x40007000

080009dc <PWR_ClearFlag>:
 80009dc:	4a02      	ldr	r2, [pc, #8]	; (80009e8 <PWR_ClearFlag+0xc>)
 80009de:	6813      	ldr	r3, [r2, #0]
 80009e0:	ea43 0080 	orr.w	r0, r3, r0, lsl #2
 80009e4:	6010      	str	r0, [r2, #0]
 80009e6:	4770      	bx	lr
 80009e8:	40007000 	.word	0x40007000

080009ec <RCC_DeInit>:
 80009ec:	4b0f      	ldr	r3, [pc, #60]	; (8000a2c <RCC_DeInit+0x40>)
 80009ee:	4810      	ldr	r0, [pc, #64]	; (8000a30 <RCC_DeInit+0x44>)
 80009f0:	681a      	ldr	r2, [r3, #0]
 80009f2:	2100      	movs	r1, #0
 80009f4:	f042 0201 	orr.w	r2, r2, #1
 80009f8:	b430      	push	{r4, r5}
 80009fa:	601a      	str	r2, [r3, #0]
 80009fc:	6099      	str	r1, [r3, #8]
 80009fe:	681a      	ldr	r2, [r3, #0]
 8000a00:	4d0c      	ldr	r5, [pc, #48]	; (8000a34 <RCC_DeInit+0x48>)
 8000a02:	4c0d      	ldr	r4, [pc, #52]	; (8000a38 <RCC_DeInit+0x4c>)
 8000a04:	f022 52a8 	bic.w	r2, r2, #352321536	; 0x15000000
 8000a08:	f422 2210 	bic.w	r2, r2, #589824	; 0x90000
 8000a0c:	601a      	str	r2, [r3, #0]
 8000a0e:	605d      	str	r5, [r3, #4]
 8000a10:	f8c3 4084 	str.w	r4, [r3, #132]	; 0x84
 8000a14:	f8c3 0088 	str.w	r0, [r3, #136]	; 0x88
 8000a18:	681a      	ldr	r2, [r3, #0]
 8000a1a:	f422 2280 	bic.w	r2, r2, #262144	; 0x40000
 8000a1e:	601a      	str	r2, [r3, #0]
 8000a20:	bc30      	pop	{r4, r5}
 8000a22:	60d9      	str	r1, [r3, #12]
 8000a24:	f8c3 108c 	str.w	r1, [r3, #140]	; 0x8c
 8000a28:	4770      	bx	lr
 8000a2a:	bf00      	nop
 8000a2c:	40023800 	.word	0x40023800
 8000a30:	24003000 	.word	0x24003000
 8000a34:	24003010 	.word	0x24003010
 8000a38:	20003000 	.word	0x20003000

08000a3c <RCC_HSEConfig>:
 8000a3c:	4b02      	ldr	r3, [pc, #8]	; (8000a48 <RCC_HSEConfig+0xc>)
 8000a3e:	2200      	movs	r2, #0
 8000a40:	701a      	strb	r2, [r3, #0]
 8000a42:	7018      	strb	r0, [r3, #0]
 8000a44:	4770      	bx	lr
 8000a46:	bf00      	nop
 8000a48:	40023802 	.word	0x40023802

08000a4c <RCC_WaitForHSEStartUp>:
 8000a4c:	b082      	sub	sp, #8
 8000a4e:	2300      	movs	r3, #0
 8000a50:	4a0a      	ldr	r2, [pc, #40]	; (8000a7c <RCC_WaitForHSEStartUp+0x30>)
 8000a52:	9301      	str	r3, [sp, #4]
 8000a54:	e002      	b.n	8000a5c <RCC_WaitForHSEStartUp+0x10>
 8000a56:	f5b3 4fa0 	cmp.w	r3, #20480	; 0x5000
 8000a5a:	d008      	beq.n	8000a6e <RCC_WaitForHSEStartUp+0x22>
 8000a5c:	6813      	ldr	r3, [r2, #0]
 8000a5e:	f413 3f00 	tst.w	r3, #131072	; 0x20000
 8000a62:	9b01      	ldr	r3, [sp, #4]
 8000a64:	f103 0301 	add.w	r3, r3, #1
 8000a68:	9301      	str	r3, [sp, #4]
 8000a6a:	9b01      	ldr	r3, [sp, #4]
 8000a6c:	d0f3      	beq.n	8000a56 <RCC_WaitForHSEStartUp+0xa>
 8000a6e:	4b03      	ldr	r3, [pc, #12]	; (8000a7c <RCC_WaitForHSEStartUp+0x30>)
 8000a70:	6818      	ldr	r0, [r3, #0]
 8000a72:	f3c0 4040 	ubfx	r0, r0, #17, #1
 8000a76:	b002      	add	sp, #8
 8000a78:	4770      	bx	lr
 8000a7a:	bf00      	nop
 8000a7c:	40023800 	.word	0x40023800

08000a80 <RCC_AdjustHSICalibrationValue>:
 8000a80:	4a03      	ldr	r2, [pc, #12]	; (8000a90 <RCC_AdjustHSICalibrationValue+0x10>)
 8000a82:	6813      	ldr	r3, [r2, #0]
 8000a84:	f023 03f8 	bic.w	r3, r3, #248	; 0xf8
 8000a88:	ea43 00c0 	orr.w	r0, r3, r0, lsl #3
 8000a8c:	6010      	str	r0, [r2, #0]
 8000a8e:	4770      	bx	lr
 8000a90:	40023800 	.word	0x40023800

08000a94 <RCC_HSICmd>:
 8000a94:	4b01      	ldr	r3, [pc, #4]	; (8000a9c <RCC_HSICmd+0x8>)
 8000a96:	6018      	str	r0, [r3, #0]
 8000a98:	4770      	bx	lr
 8000a9a:	bf00      	nop
 8000a9c:	42470000 	.word	0x42470000

08000aa0 <RCC_LSEConfig>:
 8000aa0:	4b06      	ldr	r3, [pc, #24]	; (8000abc <RCC_LSEConfig+0x1c>)
 8000aa2:	2200      	movs	r2, #0
 8000aa4:	2801      	cmp	r0, #1
 8000aa6:	701a      	strb	r2, [r3, #0]
 8000aa8:	701a      	strb	r2, [r3, #0]
 8000aaa:	d005      	beq.n	8000ab8 <RCC_LSEConfig+0x18>
 8000aac:	2804      	cmp	r0, #4
 8000aae:	d102      	bne.n	8000ab6 <RCC_LSEConfig+0x16>
 8000ab0:	2205      	movs	r2, #5
 8000ab2:	701a      	strb	r2, [r3, #0]
 8000ab4:	4770      	bx	lr
 8000ab6:	4770      	bx	lr
 8000ab8:	7018      	strb	r0, [r3, #0]
 8000aba:	4770      	bx	lr
 8000abc:	40023870 	.word	0x40023870

08000ac0 <RCC_LSICmd>:
 8000ac0:	4b01      	ldr	r3, [pc, #4]	; (8000ac8 <RCC_LSICmd+0x8>)
 8000ac2:	6018      	str	r0, [r3, #0]
 8000ac4:	4770      	bx	lr
 8000ac6:	bf00      	nop
 8000ac8:	42470e80 	.word	0x42470e80

08000acc <RCC_PLLConfig>:
 8000acc:	b430      	push	{r4, r5}
 8000ace:	9c02      	ldr	r4, [sp, #8]
 8000ad0:	4d06      	ldr	r5, [pc, #24]	; (8000aec <RCC_PLLConfig+0x20>)
 8000ad2:	ea40 6004 	orr.w	r0, r0, r4, lsl #24
 8000ad6:	4301      	orrs	r1, r0
 8000ad8:	085b      	lsrs	r3, r3, #1
 8000ada:	3b01      	subs	r3, #1
 8000adc:	ea41 1282 	orr.w	r2, r1, r2, lsl #6
 8000ae0:	ea42 4003 	orr.w	r0, r2, r3, lsl #16
 8000ae4:	6068      	str	r0, [r5, #4]
 8000ae6:	bc30      	pop	{r4, r5}
 8000ae8:	4770      	bx	lr
 8000aea:	bf00      	nop
 8000aec:	40023800 	.word	0x40023800

08000af0 <RCC_PLLCmd>:
 8000af0:	4b01      	ldr	r3, [pc, #4]	; (8000af8 <RCC_PLLCmd+0x8>)
 8000af2:	6018      	str	r0, [r3, #0]
 8000af4:	4770      	bx	lr
 8000af6:	bf00      	nop
 8000af8:	42470060 	.word	0x42470060

08000afc <RCC_PLLI2SConfig>:
 8000afc:	0709      	lsls	r1, r1, #28
 8000afe:	4b03      	ldr	r3, [pc, #12]	; (8000b0c <RCC_PLLI2SConfig+0x10>)
 8000b00:	ea41 1080 	orr.w	r0, r1, r0, lsl #6
 8000b04:	f8c3 0084 	str.w	r0, [r3, #132]	; 0x84
 8000b08:	4770      	bx	lr
 8000b0a:	bf00      	nop
 8000b0c:	40023800 	.word	0x40023800

08000b10 <RCC_PLLI2SCmd>:
 8000b10:	4b01      	ldr	r3, [pc, #4]	; (8000b18 <RCC_PLLI2SCmd+0x8>)
 8000b12:	6018      	str	r0, [r3, #0]
 8000b14:	4770      	bx	lr
 8000b16:	bf00      	nop
 8000b18:	42470068 	.word	0x42470068

08000b1c <RCC_PLLSAIConfig>:
 8000b1c:	0712      	lsls	r2, r2, #28
 8000b1e:	ea42 6101 	orr.w	r1, r2, r1, lsl #24
 8000b22:	4b03      	ldr	r3, [pc, #12]	; (8000b30 <RCC_PLLSAIConfig+0x14>)
 8000b24:	ea41 1080 	orr.w	r0, r1, r0, lsl #6
 8000b28:	f8c3 0088 	str.w	r0, [r3, #136]	; 0x88
 8000b2c:	4770      	bx	lr
 8000b2e:	bf00      	nop
 8000b30:	40023800 	.word	0x40023800

08000b34 <RCC_PLLSAICmd>:
 8000b34:	4b01      	ldr	r3, [pc, #4]	; (8000b3c <RCC_PLLSAICmd+0x8>)
 8000b36:	6018      	str	r0, [r3, #0]
 8000b38:	4770      	bx	lr
 8000b3a:	bf00      	nop
 8000b3c:	42470070 	.word	0x42470070

08000b40 <RCC_ClockSecuritySystemCmd>:
 8000b40:	4b01      	ldr	r3, [pc, #4]	; (8000b48 <RCC_ClockSecuritySystemCmd+0x8>)
 8000b42:	6018      	str	r0, [r3, #0]
 8000b44:	4770      	bx	lr
 8000b46:	bf00      	nop
 8000b48:	4247004c 	.word	0x4247004c

08000b4c <RCC_MCO1Config>:
 8000b4c:	4a03      	ldr	r2, [pc, #12]	; (8000b5c <RCC_MCO1Config+0x10>)
 8000b4e:	6893      	ldr	r3, [r2, #8]
 8000b50:	f023 63ec 	bic.w	r3, r3, #123731968	; 0x7600000
 8000b54:	4319      	orrs	r1, r3
 8000b56:	4308      	orrs	r0, r1
 8000b58:	6090      	str	r0, [r2, #8]
 8000b5a:	4770      	bx	lr
 8000b5c:	40023800 	.word	0x40023800

08000b60 <RCC_MCO2Config>:
 8000b60:	4a03      	ldr	r2, [pc, #12]	; (8000b70 <RCC_MCO2Config+0x10>)
 8000b62:	6893      	ldr	r3, [r2, #8]
 8000b64:	f023 4378 	bic.w	r3, r3, #4160749568	; 0xf8000000
 8000b68:	4319      	orrs	r1, r3
 8000b6a:	4308      	orrs	r0, r1
 8000b6c:	6090      	str	r0, [r2, #8]
 8000b6e:	4770      	bx	lr
 8000b70:	40023800 	.word	0x40023800

08000b74 <RCC_SYSCLKConfig>:
 8000b74:	4a03      	ldr	r2, [pc, #12]	; (8000b84 <RCC_SYSCLKConfig+0x10>)
 8000b76:	6893      	ldr	r3, [r2, #8]
 8000b78:	f023 0303 	bic.w	r3, r3, #3
 8000b7c:	4318      	orrs	r0, r3
 8000b7e:	6090      	str	r0, [r2, #8]
 8000b80:	4770      	bx	lr
 8000b82:	bf00      	nop
 8000b84:	40023800 	.word	0x40023800

08000b88 <RCC_GetSYSCLKSource>:
 8000b88:	4b02      	ldr	r3, [pc, #8]	; (8000b94 <RCC_GetSYSCLKSource+0xc>)
 8000b8a:	6898      	ldr	r0, [r3, #8]
 8000b8c:	f000 000c 	and.w	r0, r0, #12
 8000b90:	4770      	bx	lr
 8000b92:	bf00      	nop
 8000b94:	40023800 	.word	0x40023800

08000b98 <RCC_HCLKConfig>:
 8000b98:	4a03      	ldr	r2, [pc, #12]	; (8000ba8 <RCC_HCLKConfig+0x10>)
 8000b9a:	6893      	ldr	r3, [r2, #8]
 8000b9c:	f023 03f0 	bic.w	r3, r3, #240	; 0xf0
 8000ba0:	4318      	orrs	r0, r3
 8000ba2:	6090      	str	r0, [r2, #8]
 8000ba4:	4770      	bx	lr
 8000ba6:	bf00      	nop
 8000ba8:	40023800 	.word	0x40023800

08000bac <RCC_PCLK1Config>:
 8000bac:	4a03      	ldr	r2, [pc, #12]	; (8000bbc <RCC_PCLK1Config+0x10>)
 8000bae:	6893      	ldr	r3, [r2, #8]
 8000bb0:	f423 53e0 	bic.w	r3, r3, #7168	; 0x1c00
 8000bb4:	4318      	orrs	r0, r3
 8000bb6:	6090      	str	r0, [r2, #8]
 8000bb8:	4770      	bx	lr
 8000bba:	bf00      	nop
 8000bbc:	40023800 	.word	0x40023800

08000bc0 <RCC_PCLK2Config>:
 8000bc0:	4a03      	ldr	r2, [pc, #12]	; (8000bd0 <RCC_PCLK2Config+0x10>)
 8000bc2:	6893      	ldr	r3, [r2, #8]
 8000bc4:	f423 4360 	bic.w	r3, r3, #57344	; 0xe000
 8000bc8:	ea43 00c0 	orr.w	r0, r3, r0, lsl #3
 8000bcc:	6090      	str	r0, [r2, #8]
 8000bce:	4770      	bx	lr
 8000bd0:	40023800 	.word	0x40023800

08000bd4 <RCC_GetClocksFreq>:
 8000bd4:	b410      	push	{r4}
 8000bd6:	4c21      	ldr	r4, [pc, #132]	; (8000c5c <RCC_GetClocksFreq+0x88>)
 8000bd8:	68a3      	ldr	r3, [r4, #8]
 8000bda:	f003 030c 	and.w	r3, r3, #12
 8000bde:	2b04      	cmp	r3, #4
 8000be0:	d01b      	beq.n	8000c1a <RCC_GetClocksFreq+0x46>
 8000be2:	2b08      	cmp	r3, #8
 8000be4:	d01c      	beq.n	8000c20 <RCC_GetClocksFreq+0x4c>
 8000be6:	4b1e      	ldr	r3, [pc, #120]	; (8000c60 <RCC_GetClocksFreq+0x8c>)
 8000be8:	6003      	str	r3, [r0, #0]
 8000bea:	4a1c      	ldr	r2, [pc, #112]	; (8000c5c <RCC_GetClocksFreq+0x88>)
 8000bec:	491d      	ldr	r1, [pc, #116]	; (8000c64 <RCC_GetClocksFreq+0x90>)
 8000bee:	6894      	ldr	r4, [r2, #8]
 8000bf0:	f3c4 1403 	ubfx	r4, r4, #4, #4
 8000bf4:	5d0c      	ldrb	r4, [r1, r4]
 8000bf6:	40e3      	lsrs	r3, r4
 8000bf8:	6043      	str	r3, [r0, #4]
 8000bfa:	6894      	ldr	r4, [r2, #8]
 8000bfc:	f3c4 2482 	ubfx	r4, r4, #10, #3
 8000c00:	5d0c      	ldrb	r4, [r1, r4]
 8000c02:	fa23 f404 	lsr.w	r4, r3, r4
 8000c06:	6084      	str	r4, [r0, #8]
 8000c08:	6892      	ldr	r2, [r2, #8]
 8000c0a:	f85d 4b04 	ldr.w	r4, [sp], #4
 8000c0e:	f3c2 3242 	ubfx	r2, r2, #13, #3
 8000c12:	5c8a      	ldrb	r2, [r1, r2]
 8000c14:	40d3      	lsrs	r3, r2
 8000c16:	60c3      	str	r3, [r0, #12]
 8000c18:	4770      	bx	lr
 8000c1a:	4b13      	ldr	r3, [pc, #76]	; (8000c68 <RCC_GetClocksFreq+0x94>)
 8000c1c:	6003      	str	r3, [r0, #0]
 8000c1e:	e7e4      	b.n	8000bea <RCC_GetClocksFreq+0x16>
 8000c20:	6863      	ldr	r3, [r4, #4]
 8000c22:	6861      	ldr	r1, [r4, #4]
 8000c24:	f413 0f80 	tst.w	r3, #4194304	; 0x400000
 8000c28:	6863      	ldr	r3, [r4, #4]
 8000c2a:	bf18      	it	ne
 8000c2c:	4c0e      	ldrne	r4, [pc, #56]	; (8000c68 <RCC_GetClocksFreq+0x94>)
 8000c2e:	f001 023f 	and.w	r2, r1, #63	; 0x3f
 8000c32:	bf0c      	ite	eq
 8000c34:	490a      	ldreq	r1, [pc, #40]	; (8000c60 <RCC_GetClocksFreq+0x8c>)
 8000c36:	fbb4 f1f2 	udivne	r1, r4, r2
 8000c3a:	f3c3 1388 	ubfx	r3, r3, #6, #9
 8000c3e:	bf08      	it	eq
 8000c40:	fbb1 f1f2 	udiveq	r1, r1, r2
 8000c44:	fb01 f203 	mul.w	r2, r1, r3
 8000c48:	4b04      	ldr	r3, [pc, #16]	; (8000c5c <RCC_GetClocksFreq+0x88>)
 8000c4a:	685b      	ldr	r3, [r3, #4]
 8000c4c:	f3c3 4301 	ubfx	r3, r3, #16, #2
 8000c50:	3301      	adds	r3, #1
 8000c52:	005b      	lsls	r3, r3, #1
 8000c54:	fbb2 f3f3 	udiv	r3, r2, r3
 8000c58:	6003      	str	r3, [r0, #0]
 8000c5a:	e7c6      	b.n	8000bea <RCC_GetClocksFreq+0x16>
 8000c5c:	40023800 	.word	0x40023800
 8000c60:	00f42400 	.word	0x00f42400
 8000c64:	20000000 	.word	0x20000000
 8000c68:	007a1200 	.word	0x007a1200

08000c6c <RCC_RTCCLKConfig>:
 8000c6c:	f400 7340 	and.w	r3, r0, #768	; 0x300
 8000c70:	f5b3 7f40 	cmp.w	r3, #768	; 0x300
 8000c74:	d109      	bne.n	8000c8a <RCC_RTCCLKConfig+0x1e>
 8000c76:	4908      	ldr	r1, [pc, #32]	; (8000c98 <RCC_RTCCLKConfig+0x2c>)
 8000c78:	688b      	ldr	r3, [r1, #8]
 8000c7a:	f020 4270 	bic.w	r2, r0, #4026531840	; 0xf0000000
 8000c7e:	f423 13f8 	bic.w	r3, r3, #2031616	; 0x1f0000
 8000c82:	f422 7240 	bic.w	r2, r2, #768	; 0x300
 8000c86:	4313      	orrs	r3, r2
 8000c88:	608b      	str	r3, [r1, #8]
 8000c8a:	4a03      	ldr	r2, [pc, #12]	; (8000c98 <RCC_RTCCLKConfig+0x2c>)
 8000c8c:	6f13      	ldr	r3, [r2, #112]	; 0x70
 8000c8e:	f3c0 000b 	ubfx	r0, r0, #0, #12
 8000c92:	4318      	orrs	r0, r3
 8000c94:	6710      	str	r0, [r2, #112]	; 0x70
 8000c96:	4770      	bx	lr
 8000c98:	40023800 	.word	0x40023800

08000c9c <RCC_RTCCLKCmd>:
 8000c9c:	4b01      	ldr	r3, [pc, #4]	; (8000ca4 <RCC_RTCCLKCmd+0x8>)
 8000c9e:	6018      	str	r0, [r3, #0]
 8000ca0:	4770      	bx	lr
 8000ca2:	bf00      	nop
 8000ca4:	42470e3c 	.word	0x42470e3c

08000ca8 <RCC_BackupResetCmd>:
 8000ca8:	4b01      	ldr	r3, [pc, #4]	; (8000cb0 <RCC_BackupResetCmd+0x8>)
 8000caa:	6018      	str	r0, [r3, #0]
 8000cac:	4770      	bx	lr
 8000cae:	bf00      	nop
 8000cb0:	42470e40 	.word	0x42470e40

08000cb4 <RCC_I2SCLKConfig>:
 8000cb4:	4b01      	ldr	r3, [pc, #4]	; (8000cbc <RCC_I2SCLKConfig+0x8>)
 8000cb6:	6018      	str	r0, [r3, #0]
 8000cb8:	4770      	bx	lr
 8000cba:	bf00      	nop
 8000cbc:	4247015c 	.word	0x4247015c

08000cc0 <RCC_SAIBlockACLKConfig>:
 8000cc0:	4a04      	ldr	r2, [pc, #16]	; (8000cd4 <RCC_SAIBlockACLKConfig+0x14>)
 8000cc2:	f8d2 308c 	ldr.w	r3, [r2, #140]	; 0x8c
 8000cc6:	f423 1340 	bic.w	r3, r3, #3145728	; 0x300000
 8000cca:	4318      	orrs	r0, r3
 8000ccc:	f8c2 008c 	str.w	r0, [r2, #140]	; 0x8c
 8000cd0:	4770      	bx	lr
 8000cd2:	bf00      	nop
 8000cd4:	40023800 	.word	0x40023800

08000cd8 <RCC_SAIBlockBCLKConfig>:
 8000cd8:	4a04      	ldr	r2, [pc, #16]	; (8000cec <RCC_SAIBlockBCLKConfig+0x14>)
 8000cda:	f8d2 308c 	ldr.w	r3, [r2, #140]	; 0x8c
 8000cde:	f423 0340 	bic.w	r3, r3, #12582912	; 0xc00000
 8000ce2:	4318      	orrs	r0, r3
 8000ce4:	f8c2 008c 	str.w	r0, [r2, #140]	; 0x8c
 8000ce8:	4770      	bx	lr
 8000cea:	bf00      	nop
 8000cec:	40023800 	.word	0x40023800

08000cf0 <RCC_SAIPLLI2SClkDivConfig>:
 8000cf0:	4a04      	ldr	r2, [pc, #16]	; (8000d04 <RCC_SAIPLLI2SClkDivConfig+0x14>)
 8000cf2:	f8d2 308c 	ldr.w	r3, [r2, #140]	; 0x8c
 8000cf6:	3801      	subs	r0, #1
 8000cf8:	f023 031f 	bic.w	r3, r3, #31
 8000cfc:	4303      	orrs	r3, r0
 8000cfe:	f8c2 308c 	str.w	r3, [r2, #140]	; 0x8c
 8000d02:	4770      	bx	lr
 8000d04:	40023800 	.word	0x40023800

08000d08 <RCC_SAIPLLSAIClkDivConfig>:
 8000d08:	4a05      	ldr	r2, [pc, #20]	; (8000d20 <RCC_SAIPLLSAIClkDivConfig+0x18>)
 8000d0a:	f8d2 308c 	ldr.w	r3, [r2, #140]	; 0x8c
 8000d0e:	3801      	subs	r0, #1
 8000d10:	f423 53f8 	bic.w	r3, r3, #7936	; 0x1f00
 8000d14:	ea43 2300 	orr.w	r3, r3, r0, lsl #8
 8000d18:	f8c2 308c 	str.w	r3, [r2, #140]	; 0x8c
 8000d1c:	4770      	bx	lr
 8000d1e:	bf00      	nop
 8000d20:	40023800 	.word	0x40023800

08000d24 <RCC_LTDCCLKDivConfig>:
 8000d24:	4a04      	ldr	r2, [pc, #16]	; (8000d38 <RCC_LTDCCLKDivConfig+0x14>)
 8000d26:	f8d2 308c 	ldr.w	r3, [r2, #140]	; 0x8c
 8000d2a:	f423 3340 	bic.w	r3, r3, #196608	; 0x30000
 8000d2e:	4318      	orrs	r0, r3
 8000d30:	f8c2 008c 	str.w	r0, [r2, #140]	; 0x8c
 8000d34:	4770      	bx	lr
 8000d36:	bf00      	nop
 8000d38:	40023800 	.word	0x40023800

08000d3c <RCC_TIMCLKPresConfig>:
 8000d3c:	4b01      	ldr	r3, [pc, #4]	; (8000d44 <RCC_TIMCLKPresConfig+0x8>)
 8000d3e:	6018      	str	r0, [r3, #0]
 8000d40:	4770      	bx	lr
 8000d42:	bf00      	nop
 8000d44:	424711e0 	.word	0x424711e0

08000d48 <RCC_AHB1PeriphClockCmd>:
 8000d48:	b929      	cbnz	r1, 8000d56 <RCC_AHB1PeriphClockCmd+0xe>
 8000d4a:	4a05      	ldr	r2, [pc, #20]	; (8000d60 <RCC_AHB1PeriphClockCmd+0x18>)
 8000d4c:	6b13      	ldr	r3, [r2, #48]	; 0x30
 8000d4e:	ea23 0000 	bic.w	r0, r3, r0
 8000d52:	6310      	str	r0, [r2, #48]	; 0x30
 8000d54:	4770      	bx	lr
 8000d56:	4b02      	ldr	r3, [pc, #8]	; (8000d60 <RCC_AHB1PeriphClockCmd+0x18>)
 8000d58:	6b1a      	ldr	r2, [r3, #48]	; 0x30
 8000d5a:	4310      	orrs	r0, r2
 8000d5c:	6318      	str	r0, [r3, #48]	; 0x30
 8000d5e:	4770      	bx	lr
 8000d60:	40023800 	.word	0x40023800

08000d64 <RCC_AHB2PeriphClockCmd>:
 8000d64:	b929      	cbnz	r1, 8000d72 <RCC_AHB2PeriphClockCmd+0xe>
 8000d66:	4a05      	ldr	r2, [pc, #20]	; (8000d7c <RCC_AHB2PeriphClockCmd+0x18>)
 8000d68:	6b53      	ldr	r3, [r2, #52]	; 0x34
 8000d6a:	ea23 0000 	bic.w	r0, r3, r0
 8000d6e:	6350      	str	r0, [r2, #52]	; 0x34
 8000d70:	4770      	bx	lr
 8000d72:	4b02      	ldr	r3, [pc, #8]	; (8000d7c <RCC_AHB2PeriphClockCmd+0x18>)
 8000d74:	6b5a      	ldr	r2, [r3, #52]	; 0x34
 8000d76:	4310      	orrs	r0, r2
 8000d78:	6358      	str	r0, [r3, #52]	; 0x34
 8000d7a:	4770      	bx	lr
 8000d7c:	40023800 	.word	0x40023800

08000d80 <RCC_AHB3PeriphClockCmd>:
 8000d80:	b929      	cbnz	r1, 8000d8e <RCC_AHB3PeriphClockCmd+0xe>
 8000d82:	4a05      	ldr	r2, [pc, #20]	; (8000d98 <RCC_AHB3PeriphClockCmd+0x18>)
 8000d84:	6b93      	ldr	r3, [r2, #56]	; 0x38
 8000d86:	ea23 0000 	bic.w	r0, r3, r0
 8000d8a:	6390      	str	r0, [r2, #56]	; 0x38
 8000d8c:	4770      	bx	lr
 8000d8e:	4b02      	ldr	r3, [pc, #8]	; (8000d98 <RCC_AHB3PeriphClockCmd+0x18>)
 8000d90:	6b9a      	ldr	r2, [r3, #56]	; 0x38
 8000d92:	4310      	orrs	r0, r2
 8000d94:	6398      	str	r0, [r3, #56]	; 0x38
 8000d96:	4770      	bx	lr
 8000d98:	40023800 	.word	0x40023800

08000d9c <RCC_APB1PeriphClockCmd>:
 8000d9c:	b929      	cbnz	r1, 8000daa <RCC_APB1PeriphClockCmd+0xe>
 8000d9e:	4a05      	ldr	r2, [pc, #20]	; (8000db4 <RCC_APB1PeriphClockCmd+0x18>)
 8000da0:	6c13      	ldr	r3, [r2, #64]	; 0x40
 8000da2:	ea23 0000 	bic.w	r0, r3, r0
 8000da6:	6410      	str	r0, [r2, #64]	; 0x40
 8000da8:	4770      	bx	lr
 8000daa:	4b02      	ldr	r3, [pc, #8]	; (8000db4 <RCC_APB1PeriphClockCmd+0x18>)
 8000dac:	6c1a      	ldr	r2, [r3, #64]	; 0x40
 8000dae:	4310      	orrs	r0, r2
 8000db0:	6418      	str	r0, [r3, #64]	; 0x40
 8000db2:	4770      	bx	lr
 8000db4:	40023800 	.word	0x40023800

08000db8 <RCC_APB2PeriphClockCmd>:
 8000db8:	b929      	cbnz	r1, 8000dc6 <RCC_APB2PeriphClockCmd+0xe>
 8000dba:	4a05      	ldr	r2, [pc, #20]	; (8000dd0 <RCC_APB2PeriphClockCmd+0x18>)
 8000dbc:	6c53      	ldr	r3, [r2, #68]	; 0x44
 8000dbe:	ea23 0000 	bic.w	r0, r3, r0
 8000dc2:	6450      	str	r0, [r2, #68]	; 0x44
 8000dc4:	4770      	bx	lr
 8000dc6:	4b02      	ldr	r3, [pc, #8]	; (8000dd0 <RCC_APB2PeriphClockCmd+0x18>)
 8000dc8:	6c5a      	ldr	r2, [r3, #68]	; 0x44
 8000dca:	4310      	orrs	r0, r2
 8000dcc:	6458      	str	r0, [r3, #68]	; 0x44
 8000dce:	4770      	bx	lr
 8000dd0:	40023800 	.word	0x40023800

08000dd4 <RCC_AHB1PeriphResetCmd>:
 8000dd4:	b929      	cbnz	r1, 8000de2 <RCC_AHB1PeriphResetCmd+0xe>
 8000dd6:	4a05      	ldr	r2, [pc, #20]	; (8000dec <RCC_AHB1PeriphResetCmd+0x18>)
 8000dd8:	6913      	ldr	r3, [r2, #16]
 8000dda:	ea23 0000 	bic.w	r0, r3, r0
 8000dde:	6110      	str	r0, [r2, #16]
 8000de0:	4770      	bx	lr
 8000de2:	4b02      	ldr	r3, [pc, #8]	; (8000dec <RCC_AHB1PeriphResetCmd+0x18>)
 8000de4:	691a      	ldr	r2, [r3, #16]
 8000de6:	4310      	orrs	r0, r2
 8000de8:	6118      	str	r0, [r3, #16]
 8000dea:	4770      	bx	lr
 8000dec:	40023800 	.word	0x40023800

08000df0 <RCC_AHB2PeriphResetCmd>:
 8000df0:	b929      	cbnz	r1, 8000dfe <RCC_AHB2PeriphResetCmd+0xe>
 8000df2:	4a05      	ldr	r2, [pc, #20]	; (8000e08 <RCC_AHB2PeriphResetCmd+0x18>)
 8000df4:	6953      	ldr	r3, [r2, #20]
 8000df6:	ea23 0000 	bic.w	r0, r3, r0
 8000dfa:	6150      	str	r0, [r2, #20]
 8000dfc:	4770      	bx	lr
 8000dfe:	4b02      	ldr	r3, [pc, #8]	; (8000e08 <RCC_AHB2PeriphResetCmd+0x18>)
 8000e00:	695a      	ldr	r2, [r3, #20]
 8000e02:	4310      	orrs	r0, r2
 8000e04:	6158      	str	r0, [r3, #20]
 8000e06:	4770      	bx	lr
 8000e08:	40023800 	.word	0x40023800

08000e0c <RCC_AHB3PeriphResetCmd>:
 8000e0c:	b929      	cbnz	r1, 8000e1a <RCC_AHB3PeriphResetCmd+0xe>
 8000e0e:	4a05      	ldr	r2, [pc, #20]	; (8000e24 <RCC_AHB3PeriphResetCmd+0x18>)
 8000e10:	6993      	ldr	r3, [r2, #24]
 8000e12:	ea23 0000 	bic.w	r0, r3, r0
 8000e16:	6190      	str	r0, [r2, #24]
 8000e18:	4770      	bx	lr
 8000e1a:	4b02      	ldr	r3, [pc, #8]	; (8000e24 <RCC_AHB3PeriphResetCmd+0x18>)
 8000e1c:	699a      	ldr	r2, [r3, #24]
 8000e1e:	4310      	orrs	r0, r2
 8000e20:	6198      	str	r0, [r3, #24]
 8000e22:	4770      	bx	lr
 8000e24:	40023800 	.word	0x40023800

08000e28 <RCC_APB1PeriphResetCmd>:
 8000e28:	b929      	cbnz	r1, 8000e36 <RCC_APB1PeriphResetCmd+0xe>
 8000e2a:	4a05      	ldr	r2, [pc, #20]	; (8000e40 <RCC_APB1PeriphResetCmd+0x18>)
 8000e2c:	6a13      	ldr	r3, [r2, #32]
 8000e2e:	ea23 0000 	bic.w	r0, r3, r0
 8000e32:	6210      	str	r0, [r2, #32]
 8000e34:	4770      	bx	lr
 8000e36:	4b02      	ldr	r3, [pc, #8]	; (8000e40 <RCC_APB1PeriphResetCmd+0x18>)
 8000e38:	6a1a      	ldr	r2, [r3, #32]
 8000e3a:	4310      	orrs	r0, r2
 8000e3c:	6218      	str	r0, [r3, #32]
 8000e3e:	4770      	bx	lr
 8000e40:	40023800 	.word	0x40023800

08000e44 <RCC_APB2PeriphResetCmd>:
 8000e44:	b929      	cbnz	r1, 8000e52 <RCC_APB2PeriphResetCmd+0xe>
 8000e46:	4a05      	ldr	r2, [pc, #20]	; (8000e5c <RCC_APB2PeriphResetCmd+0x18>)
 8000e48:	6a53      	ldr	r3, [r2, #36]	; 0x24
 8000e4a:	ea23 0000 	bic.w	r0, r3, r0
 8000e4e:	6250      	str	r0, [r2, #36]	; 0x24
 8000e50:	4770      	bx	lr
 8000e52:	4b02      	ldr	r3, [pc, #8]	; (8000e5c <RCC_APB2PeriphResetCmd+0x18>)
 8000e54:	6a5a      	ldr	r2, [r3, #36]	; 0x24
 8000e56:	4310      	orrs	r0, r2
 8000e58:	6258      	str	r0, [r3, #36]	; 0x24
 8000e5a:	4770      	bx	lr
 8000e5c:	40023800 	.word	0x40023800

08000e60 <RCC_AHB1PeriphClockLPModeCmd>:
 8000e60:	b929      	cbnz	r1, 8000e6e <RCC_AHB1PeriphClockLPModeCmd+0xe>
 8000e62:	4a05      	ldr	r2, [pc, #20]	; (8000e78 <RCC_AHB1PeriphClockLPModeCmd+0x18>)
 8000e64:	6d13      	ldr	r3, [r2, #80]	; 0x50
 8000e66:	ea23 0000 	bic.w	r0, r3, r0
 8000e6a:	6510      	str	r0, [r2, #80]	; 0x50
 8000e6c:	4770      	bx	lr
 8000e6e:	4b02      	ldr	r3, [pc, #8]	; (8000e78 <RCC_AHB1PeriphClockLPModeCmd+0x18>)
 8000e70:	6d1a      	ldr	r2, [r3, #80]	; 0x50
 8000e72:	4310      	orrs	r0, r2
 8000e74:	6518      	str	r0, [r3, #80]	; 0x50
 8000e76:	4770      	bx	lr
 8000e78:	40023800 	.word	0x40023800

08000e7c <RCC_AHB2PeriphClockLPModeCmd>:
 8000e7c:	b929      	cbnz	r1, 8000e8a <RCC_AHB2PeriphClockLPModeCmd+0xe>
 8000e7e:	4a05      	ldr	r2, [pc, #20]	; (8000e94 <RCC_AHB2PeriphClockLPModeCmd+0x18>)
 8000e80:	6d53      	ldr	r3, [r2, #84]	; 0x54
 8000e82:	ea23 0000 	bic.w	r0, r3, r0
 8000e86:	6550      	str	r0, [r2, #84]	; 0x54
 8000e88:	4770      	bx	lr
 8000e8a:	4b02      	ldr	r3, [pc, #8]	; (8000e94 <RCC_AHB2PeriphClockLPModeCmd+0x18>)
 8000e8c:	6d5a      	ldr	r2, [r3, #84]	; 0x54
 8000e8e:	4310      	orrs	r0, r2
 8000e90:	6558      	str	r0, [r3, #84]	; 0x54
 8000e92:	4770      	bx	lr
 8000e94:	40023800 	.word	0x40023800

08000e98 <RCC_AHB3PeriphClockLPModeCmd>:
 8000e98:	b929      	cbnz	r1, 8000ea6 <RCC_AHB3PeriphClockLPModeCmd+0xe>
 8000e9a:	4a05      	ldr	r2, [pc, #20]	; (8000eb0 <RCC_AHB3PeriphClockLPModeCmd+0x18>)
 8000e9c:	6d93      	ldr	r3, [r2, #88]	; 0x58
 8000e9e:	ea23 0000 	bic.w	r0, r3, r0
 8000ea2:	6590      	str	r0, [r2, #88]	; 0x58
 8000ea4:	4770      	bx	lr
 8000ea6:	4b02      	ldr	r3, [pc, #8]	; (8000eb0 <RCC_AHB3PeriphClockLPModeCmd+0x18>)
 8000ea8:	6d9a      	ldr	r2, [r3, #88]	; 0x58
 8000eaa:	4310      	orrs	r0, r2
 8000eac:	6598      	str	r0, [r3, #88]	; 0x58
 8000eae:	4770      	bx	lr
 8000eb0:	40023800 	.word	0x40023800

08000eb4 <RCC_APB1PeriphClockLPModeCmd>:
 8000eb4:	b929      	cbnz	r1, 8000ec2 <RCC_APB1PeriphClockLPModeCmd+0xe>
 8000eb6:	4a05      	ldr	r2, [pc, #20]	; (8000ecc <RCC_APB1PeriphClockLPModeCmd+0x18>)
 8000eb8:	6e13      	ldr	r3, [r2, #96]	; 0x60
 8000eba:	ea23 0000 	bic.w	r0, r3, r0
 8000ebe:	6610      	str	r0, [r2, #96]	; 0x60
 8000ec0:	4770      	bx	lr
 8000ec2:	4b02      	ldr	r3, [pc, #8]	; (8000ecc <RCC_APB1PeriphClockLPModeCmd+0x18>)
 8000ec4:	6e1a      	ldr	r2, [r3, #96]	; 0x60
 8000ec6:	4310      	orrs	r0, r2
 8000ec8:	6618      	str	r0, [r3, #96]	; 0x60
 8000eca:	4770      	bx	lr
 8000ecc:	40023800 	.word	0x40023800

08000ed0 <RCC_APB2PeriphClockLPModeCmd>:
 8000ed0:	b929      	cbnz	r1, 8000ede <RCC_APB2PeriphClockLPModeCmd+0xe>
 8000ed2:	4a05      	ldr	r2, [pc, #20]	; (8000ee8 <RCC_APB2PeriphClockLPModeCmd+0x18>)
 8000ed4:	6e53      	ldr	r3, [r2, #100]	; 0x64
 8000ed6:	ea23 0000 	bic.w	r0, r3, r0
 8000eda:	6650      	str	r0, [r2, #100]	; 0x64
 8000edc:	4770      	bx	lr
 8000ede:	4b02      	ldr	r3, [pc, #8]	; (8000ee8 <RCC_APB2PeriphClockLPModeCmd+0x18>)
 8000ee0:	6e5a      	ldr	r2, [r3, #100]	; 0x64
 8000ee2:	4310      	orrs	r0, r2
 8000ee4:	6658      	str	r0, [r3, #100]	; 0x64
 8000ee6:	4770      	bx	lr
 8000ee8:	40023800 	.word	0x40023800

08000eec <RCC_LSEModeConfig>:
 8000eec:	4a04      	ldr	r2, [pc, #16]	; (8000f00 <RCC_LSEModeConfig+0x14>)
 8000eee:	6f13      	ldr	r3, [r2, #112]	; 0x70
 8000ef0:	2801      	cmp	r0, #1
 8000ef2:	bf0c      	ite	eq
 8000ef4:	f043 0308 	orreq.w	r3, r3, #8
 8000ef8:	f023 0308 	bicne.w	r3, r3, #8
 8000efc:	6713      	str	r3, [r2, #112]	; 0x70
 8000efe:	4770      	bx	lr
 8000f00:	40023800 	.word	0x40023800

08000f04 <RCC_ITConfig>:
 8000f04:	b929      	cbnz	r1, 8000f12 <RCC_ITConfig+0xe>
 8000f06:	4a05      	ldr	r2, [pc, #20]	; (8000f1c <RCC_ITConfig+0x18>)
 8000f08:	7813      	ldrb	r3, [r2, #0]
 8000f0a:	ea23 0000 	bic.w	r0, r3, r0
 8000f0e:	7010      	strb	r0, [r2, #0]
 8000f10:	4770      	bx	lr
 8000f12:	4b02      	ldr	r3, [pc, #8]	; (8000f1c <RCC_ITConfig+0x18>)
 8000f14:	781a      	ldrb	r2, [r3, #0]
 8000f16:	4310      	orrs	r0, r2
 8000f18:	7018      	strb	r0, [r3, #0]
 8000f1a:	4770      	bx	lr
 8000f1c:	4002380d 	.word	0x4002380d

08000f20 <RCC_GetFlagStatus>:
 8000f20:	0943      	lsrs	r3, r0, #5
 8000f22:	2b01      	cmp	r3, #1
 8000f24:	d00b      	beq.n	8000f3e <RCC_GetFlagStatus+0x1e>
 8000f26:	2b02      	cmp	r3, #2
 8000f28:	4b09      	ldr	r3, [pc, #36]	; (8000f50 <RCC_GetFlagStatus+0x30>)
 8000f2a:	bf0c      	ite	eq
 8000f2c:	6f1b      	ldreq	r3, [r3, #112]	; 0x70
 8000f2e:	6f5b      	ldrne	r3, [r3, #116]	; 0x74
 8000f30:	f000 001f 	and.w	r0, r0, #31
 8000f34:	fa23 f000 	lsr.w	r0, r3, r0
 8000f38:	f000 0001 	and.w	r0, r0, #1
 8000f3c:	4770      	bx	lr
 8000f3e:	4b04      	ldr	r3, [pc, #16]	; (8000f50 <RCC_GetFlagStatus+0x30>)
 8000f40:	681b      	ldr	r3, [r3, #0]
 8000f42:	f000 001f 	and.w	r0, r0, #31
 8000f46:	fa23 f000 	lsr.w	r0, r3, r0
 8000f4a:	f000 0001 	and.w	r0, r0, #1
 8000f4e:	4770      	bx	lr
 8000f50:	40023800 	.word	0x40023800

08000f54 <RCC_ClearFlag>:
 8000f54:	4a02      	ldr	r2, [pc, #8]	; (8000f60 <RCC_ClearFlag+0xc>)
 8000f56:	6f53      	ldr	r3, [r2, #116]	; 0x74
 8000f58:	f043 7380 	orr.w	r3, r3, #16777216	; 0x1000000
 8000f5c:	6753      	str	r3, [r2, #116]	; 0x74
 8000f5e:	4770      	bx	lr
 8000f60:	40023800 	.word	0x40023800

08000f64 <RCC_GetITStatus>:
 8000f64:	4b03      	ldr	r3, [pc, #12]	; (8000f74 <RCC_GetITStatus+0x10>)
 8000f66:	68db      	ldr	r3, [r3, #12]
 8000f68:	4218      	tst	r0, r3
 8000f6a:	bf14      	ite	ne
 8000f6c:	2001      	movne	r0, #1
 8000f6e:	2000      	moveq	r0, #0
 8000f70:	4770      	bx	lr
 8000f72:	bf00      	nop
 8000f74:	40023800 	.word	0x40023800

08000f78 <RCC_ClearITPendingBit>:
 8000f78:	4b01      	ldr	r3, [pc, #4]	; (8000f80 <RCC_ClearITPendingBit+0x8>)
 8000f7a:	7018      	strb	r0, [r3, #0]
 8000f7c:	4770      	bx	lr
 8000f7e:	bf00      	nop
 8000f80:	4002380e 	.word	0x4002380e

08000f84 <USART_DeInit>:
 8000f84:	b508      	push	{r3, lr}
 8000f86:	4b3a      	ldr	r3, [pc, #232]	; (8001070 <USART_DeInit+0xec>)
 8000f88:	4298      	cmp	r0, r3
 8000f8a:	d021      	beq.n	8000fd0 <USART_DeInit+0x4c>
 8000f8c:	4b39      	ldr	r3, [pc, #228]	; (8001074 <USART_DeInit+0xf0>)
 8000f8e:	4298      	cmp	r0, r3
 8000f90:	d028      	beq.n	8000fe4 <USART_DeInit+0x60>
 8000f92:	4b39      	ldr	r3, [pc, #228]	; (8001078 <USART_DeInit+0xf4>)
 8000f94:	4298      	cmp	r0, r3
 8000f96:	d031      	beq.n	8000ffc <USART_DeInit+0x78>
 8000f98:	4b38      	ldr	r3, [pc, #224]	; (800107c <USART_DeInit+0xf8>)
 8000f9a:	4298      	cmp	r0, r3
 8000f9c:	d03a      	beq.n	8001014 <USART_DeInit+0x90>
 8000f9e:	4b38      	ldr	r3, [pc, #224]	; (8001080 <USART_DeInit+0xfc>)
 8000fa0:	4298      	cmp	r0, r3
 8000fa2:	d043      	beq.n	800102c <USART_DeInit+0xa8>
 8000fa4:	4b37      	ldr	r3, [pc, #220]	; (8001084 <USART_DeInit+0x100>)
 8000fa6:	4298      	cmp	r0, r3
 8000fa8:	d04c      	beq.n	8001044 <USART_DeInit+0xc0>
 8000faa:	4b37      	ldr	r3, [pc, #220]	; (8001088 <USART_DeInit+0x104>)
 8000fac:	4298      	cmp	r0, r3
 8000fae:	d053      	beq.n	8001058 <USART_DeInit+0xd4>
 8000fb0:	4b36      	ldr	r3, [pc, #216]	; (800108c <USART_DeInit+0x108>)
 8000fb2:	4298      	cmp	r0, r3
 8000fb4:	d000      	beq.n	8000fb8 <USART_DeInit+0x34>
 8000fb6:	bd08      	pop	{r3, pc}
 8000fb8:	2101      	movs	r1, #1
 8000fba:	f04f 4000 	mov.w	r0, #2147483648	; 0x80000000
 8000fbe:	f7ff ff33 	bl	8000e28 <RCC_APB1PeriphResetCmd>
 8000fc2:	2100      	movs	r1, #0
 8000fc4:	f04f 4000 	mov.w	r0, #2147483648	; 0x80000000
 8000fc8:	e8bd 4008 	ldmia.w	sp!, {r3, lr}
 8000fcc:	f7ff bf2c 	b.w	8000e28 <RCC_APB1PeriphResetCmd>
 8000fd0:	2101      	movs	r1, #1
 8000fd2:	2010      	movs	r0, #16
 8000fd4:	f7ff ff36 	bl	8000e44 <RCC_APB2PeriphResetCmd>
 8000fd8:	2100      	movs	r1, #0
 8000fda:	2010      	movs	r0, #16
 8000fdc:	e8bd 4008 	ldmia.w	sp!, {r3, lr}
 8000fe0:	f7ff bf30 	b.w	8000e44 <RCC_APB2PeriphResetCmd>
 8000fe4:	2101      	movs	r1, #1
 8000fe6:	f44f 3000 	mov.w	r0, #131072	; 0x20000
 8000fea:	f7ff ff1d 	bl	8000e28 <RCC_APB1PeriphResetCmd>
 8000fee:	2100      	movs	r1, #0
 8000ff0:	f44f 3000 	mov.w	r0, #131072	; 0x20000
 8000ff4:	e8bd 4008 	ldmia.w	sp!, {r3, lr}
 8000ff8:	f7ff bf16 	b.w	8000e28 <RCC_APB1PeriphResetCmd>
 8000ffc:	2101      	movs	r1, #1
 8000ffe:	f44f 2080 	mov.w	r0, #262144	; 0x40000
 8001002:	f7ff ff11 	bl	8000e28 <RCC_APB1PeriphResetCmd>
 8001006:	2100      	movs	r1, #0
 8001008:	f44f 2080 	mov.w	r0, #262144	; 0x40000
 800100c:	e8bd 4008 	ldmia.w	sp!, {r3, lr}
 8001010:	f7ff bf0a 	b.w	8000e28 <RCC_APB1PeriphResetCmd>
 8001014:	2101      	movs	r1, #1
 8001016:	f44f 2000 	mov.w	r0, #524288	; 0x80000
 800101a:	f7ff ff05 	bl	8000e28 <RCC_APB1PeriphResetCmd>
 800101e:	2100      	movs	r1, #0
 8001020:	f44f 2000 	mov.w	r0, #524288	; 0x80000
 8001024:	e8bd 4008 	ldmia.w	sp!, {r3, lr}
 8001028:	f7ff befe 	b.w	8000e28 <RCC_APB1PeriphResetCmd>
 800102c:	2101      	movs	r1, #1
 800102e:	f44f 1080 	mov.w	r0, #1048576	; 0x100000
 8001032:	f7ff fef9 	bl	8000e28 <RCC_APB1PeriphResetCmd>
 8001036:	2100      	movs	r1, #0
 8001038:	f44f 1080 	mov.w	r0, #1048576	; 0x100000
 800103c:	e8bd 4008 	ldmia.w	sp!, {r3, lr}
 8001040:	f7ff bef2 	b.w	8000e28 <RCC_APB1PeriphResetCmd>
 8001044:	2101      	movs	r1, #1
 8001046:	2020      	movs	r0, #32
 8001048:	f7ff fefc 	bl	8000e44 <RCC_APB2PeriphResetCmd>
 800104c:	2100      	movs	r1, #0
 800104e:	2020      	movs	r0, #32
 8001050:	e8bd 4008 	ldmia.w	sp!, {r3, lr}
 8001054:	f7ff bef6 	b.w	8000e44 <RCC_APB2PeriphResetCmd>
 8001058:	2101      	movs	r1, #1
 800105a:	f04f 4080 	mov.w	r0, #1073741824	; 0x40000000
 800105e:	f7ff fee3 	bl	8000e28 <RCC_APB1PeriphResetCmd>
 8001062:	2100      	movs	r1, #0
 8001064:	f04f 4080 	mov.w	r0, #1073741824	; 0x40000000
 8001068:	e8bd 4008 	ldmia.w	sp!, {r3, lr}
 800106c:	f7ff bedc 	b.w	8000e28 <RCC_APB1PeriphResetCmd>
 8001070:	40011000 	.word	0x40011000
 8001074:	40004400 	.word	0x40004400
 8001078:	40004800 	.word	0x40004800
 800107c:	40004c00 	.word	0x40004c00
 8001080:	40005000 	.word	0x40005000
 8001084:	40011400 	.word	0x40011400
 8001088:	40007800 	.word	0x40007800
 800108c:	40007c00 	.word	0x40007c00

08001090 <USART_Init>:
 8001090:	8a02      	ldrh	r2, [r0, #16]
 8001092:	890b      	ldrh	r3, [r1, #8]
 8001094:	b5f0      	push	{r4, r5, r6, r7, lr}
 8001096:	b292      	uxth	r2, r2
 8001098:	88cf      	ldrh	r7, [r1, #6]
 800109a:	888e      	ldrh	r6, [r1, #4]
 800109c:	4604      	mov	r4, r0
 800109e:	f422 5240 	bic.w	r2, r2, #12288	; 0x3000
 80010a2:	433a      	orrs	r2, r7
 80010a4:	8948      	ldrh	r0, [r1, #10]
 80010a6:	460d      	mov	r5, r1
 80010a8:	8989      	ldrh	r1, [r1, #12]
 80010aa:	8222      	strh	r2, [r4, #16]
 80010ac:	89a2      	ldrh	r2, [r4, #12]
 80010ae:	4333      	orrs	r3, r6
 80010b0:	b292      	uxth	r2, r2
 80010b2:	4303      	orrs	r3, r0
 80010b4:	f422 52b0 	bic.w	r2, r2, #5632	; 0x1600
 80010b8:	f022 020c 	bic.w	r2, r2, #12
 80010bc:	b29b      	uxth	r3, r3
 80010be:	4313      	orrs	r3, r2
 80010c0:	81a3      	strh	r3, [r4, #12]
 80010c2:	8aa3      	ldrh	r3, [r4, #20]
 80010c4:	b29b      	uxth	r3, r3
 80010c6:	f423 7340 	bic.w	r3, r3, #768	; 0x300
 80010ca:	430b      	orrs	r3, r1
 80010cc:	b085      	sub	sp, #20
 80010ce:	82a3      	strh	r3, [r4, #20]
 80010d0:	4668      	mov	r0, sp
 80010d2:	f7ff fd7f 	bl	8000bd4 <RCC_GetClocksFreq>
 80010d6:	4b1d      	ldr	r3, [pc, #116]	; (800114c <USART_Init+0xbc>)
 80010d8:	429c      	cmp	r4, r3
 80010da:	d028      	beq.n	800112e <USART_Init+0x9e>
 80010dc:	f503 6380 	add.w	r3, r3, #1024	; 0x400
 80010e0:	429c      	cmp	r4, r3
 80010e2:	d024      	beq.n	800112e <USART_Init+0x9e>
 80010e4:	9a02      	ldr	r2, [sp, #8]
 80010e6:	89a3      	ldrh	r3, [r4, #12]
 80010e8:	89a1      	ldrh	r1, [r4, #12]
 80010ea:	f413 4f00 	tst.w	r3, #32768	; 0x8000
 80010ee:	682b      	ldr	r3, [r5, #0]
 80010f0:	eb02 0282 	add.w	r2, r2, r2, lsl #2
 80010f4:	bf14      	ite	ne
 80010f6:	005b      	lslne	r3, r3, #1
 80010f8:	009b      	lsleq	r3, r3, #2
 80010fa:	eb02 0282 	add.w	r2, r2, r2, lsl #2
 80010fe:	fbb2 f0f3 	udiv	r0, r2, r3
 8001102:	4a13      	ldr	r2, [pc, #76]	; (8001150 <USART_Init+0xc0>)
 8001104:	fba2 3500 	umull	r3, r5, r2, r0
 8001108:	096d      	lsrs	r5, r5, #5
 800110a:	2364      	movs	r3, #100	; 0x64
 800110c:	0409      	lsls	r1, r1, #16
 800110e:	fb05 0313 	mls	r3, r5, r3, r0
 8001112:	ea4f 1505 	mov.w	r5, r5, lsl #4
 8001116:	d40c      	bmi.n	8001132 <USART_Init+0xa2>
 8001118:	011b      	lsls	r3, r3, #4
 800111a:	3332      	adds	r3, #50	; 0x32
 800111c:	fba2 2303 	umull	r2, r3, r2, r3
 8001120:	f3c3 1343 	ubfx	r3, r3, #5, #4
 8001124:	432b      	orrs	r3, r5
 8001126:	b29b      	uxth	r3, r3
 8001128:	8123      	strh	r3, [r4, #8]
 800112a:	b005      	add	sp, #20
 800112c:	bdf0      	pop	{r4, r5, r6, r7, pc}
 800112e:	9a03      	ldr	r2, [sp, #12]
 8001130:	e7d9      	b.n	80010e6 <USART_Init+0x56>
 8001132:	00d9      	lsls	r1, r3, #3
 8001134:	3132      	adds	r1, #50	; 0x32
 8001136:	fba2 3101 	umull	r3, r1, r2, r1
 800113a:	f3c1 1242 	ubfx	r2, r1, #5, #3
 800113e:	ea42 0305 	orr.w	r3, r2, r5
 8001142:	b29b      	uxth	r3, r3
 8001144:	8123      	strh	r3, [r4, #8]
 8001146:	b005      	add	sp, #20
 8001148:	bdf0      	pop	{r4, r5, r6, r7, pc}
 800114a:	bf00      	nop
 800114c:	40011000 	.word	0x40011000
 8001150:	51eb851f 	.word	0x51eb851f

08001154 <USART_StructInit>:
 8001154:	2300      	movs	r3, #0
 8001156:	f44f 5116 	mov.w	r1, #9600	; 0x2580
 800115a:	220c      	movs	r2, #12
 800115c:	6001      	str	r1, [r0, #0]
 800115e:	8142      	strh	r2, [r0, #10]
 8001160:	8083      	strh	r3, [r0, #4]
 8001162:	80c3      	strh	r3, [r0, #6]
 8001164:	8103      	strh	r3, [r0, #8]
 8001166:	8183      	strh	r3, [r0, #12]
 8001168:	4770      	bx	lr
 800116a:	bf00      	nop

0800116c <USART_ClockInit>:
 800116c:	b430      	push	{r4, r5}
 800116e:	884a      	ldrh	r2, [r1, #2]
 8001170:	880d      	ldrh	r5, [r1, #0]
 8001172:	888c      	ldrh	r4, [r1, #4]
 8001174:	8a03      	ldrh	r3, [r0, #16]
 8001176:	88c9      	ldrh	r1, [r1, #6]
 8001178:	432a      	orrs	r2, r5
 800117a:	4322      	orrs	r2, r4
 800117c:	430a      	orrs	r2, r1
 800117e:	b29b      	uxth	r3, r3
 8001180:	b292      	uxth	r2, r2
 8001182:	f423 6370 	bic.w	r3, r3, #3840	; 0xf00
 8001186:	4313      	orrs	r3, r2
 8001188:	8203      	strh	r3, [r0, #16]
 800118a:	bc30      	pop	{r4, r5}
 800118c:	4770      	bx	lr
 800118e:	bf00      	nop

08001190 <USART_ClockStructInit>:
 8001190:	2300      	movs	r3, #0
 8001192:	8003      	strh	r3, [r0, #0]
 8001194:	8043      	strh	r3, [r0, #2]
 8001196:	8083      	strh	r3, [r0, #4]
 8001198:	80c3      	strh	r3, [r0, #6]
 800119a:	4770      	bx	lr

0800119c <USART_Cmd>:
 800119c:	8983      	ldrh	r3, [r0, #12]
 800119e:	b929      	cbnz	r1, 80011ac <USART_Cmd+0x10>
 80011a0:	f423 5300 	bic.w	r3, r3, #8192	; 0x2000
 80011a4:	041b      	lsls	r3, r3, #16
 80011a6:	0c1b      	lsrs	r3, r3, #16
 80011a8:	8183      	strh	r3, [r0, #12]
 80011aa:	4770      	bx	lr
 80011ac:	b29b      	uxth	r3, r3
 80011ae:	f443 5300 	orr.w	r3, r3, #8192	; 0x2000
 80011b2:	8183      	strh	r3, [r0, #12]
 80011b4:	4770      	bx	lr
 80011b6:	bf00      	nop

080011b8 <USART_SetPrescaler>:
 80011b8:	8b03      	ldrh	r3, [r0, #24]
 80011ba:	f403 437f 	and.w	r3, r3, #65280	; 0xff00
 80011be:	8303      	strh	r3, [r0, #24]
 80011c0:	8b03      	ldrh	r3, [r0, #24]
 80011c2:	b29b      	uxth	r3, r3
 80011c4:	4319      	orrs	r1, r3
 80011c6:	8301      	strh	r1, [r0, #24]
 80011c8:	4770      	bx	lr
 80011ca:	bf00      	nop

080011cc <USART_OverSampling8Cmd>:
 80011cc:	8983      	ldrh	r3, [r0, #12]
 80011ce:	b919      	cbnz	r1, 80011d8 <USART_OverSampling8Cmd+0xc>
 80011d0:	f3c3 030e 	ubfx	r3, r3, #0, #15
 80011d4:	8183      	strh	r3, [r0, #12]
 80011d6:	4770      	bx	lr
 80011d8:	ea6f 4343 	mvn.w	r3, r3, lsl #17
 80011dc:	ea6f 4353 	mvn.w	r3, r3, lsr #17
 80011e0:	b29b      	uxth	r3, r3
 80011e2:	8183      	strh	r3, [r0, #12]
 80011e4:	4770      	bx	lr
 80011e6:	bf00      	nop

080011e8 <USART_OneBitMethodCmd>:
 80011e8:	8a83      	ldrh	r3, [r0, #20]
 80011ea:	b929      	cbnz	r1, 80011f8 <USART_OneBitMethodCmd+0x10>
 80011ec:	f423 6300 	bic.w	r3, r3, #2048	; 0x800
 80011f0:	041b      	lsls	r3, r3, #16
 80011f2:	0c1b      	lsrs	r3, r3, #16
 80011f4:	8283      	strh	r3, [r0, #20]
 80011f6:	4770      	bx	lr
 80011f8:	b29b      	uxth	r3, r3
 80011fa:	f443 6300 	orr.w	r3, r3, #2048	; 0x800
 80011fe:	8283      	strh	r3, [r0, #20]
 8001200:	4770      	bx	lr
 8001202:	bf00      	nop

08001204 <USART_SendData>:
 8001204:	f3c1 0108 	ubfx	r1, r1, #0, #9
 8001208:	8081      	strh	r1, [r0, #4]
 800120a:	4770      	bx	lr

0800120c <USART_ReceiveData>:
 800120c:	8880      	ldrh	r0, [r0, #4]
 800120e:	f3c0 0008 	ubfx	r0, r0, #0, #9
 8001212:	4770      	bx	lr

08001214 <USART_SetAddress>:
 8001214:	8a03      	ldrh	r3, [r0, #16]
 8001216:	f023 030f 	bic.w	r3, r3, #15
 800121a:	041b      	lsls	r3, r3, #16
 800121c:	0c1b      	lsrs	r3, r3, #16
 800121e:	8203      	strh	r3, [r0, #16]
 8001220:	8a03      	ldrh	r3, [r0, #16]
 8001222:	b29b      	uxth	r3, r3
 8001224:	4319      	orrs	r1, r3
 8001226:	8201      	strh	r1, [r0, #16]
 8001228:	4770      	bx	lr
 800122a:	bf00      	nop

0800122c <USART_ReceiverWakeUpCmd>:
 800122c:	8983      	ldrh	r3, [r0, #12]
 800122e:	b929      	cbnz	r1, 800123c <USART_ReceiverWakeUpCmd+0x10>
 8001230:	f023 0302 	bic.w	r3, r3, #2
 8001234:	041b      	lsls	r3, r3, #16
 8001236:	0c1b      	lsrs	r3, r3, #16
 8001238:	8183      	strh	r3, [r0, #12]
 800123a:	4770      	bx	lr
 800123c:	b29b      	uxth	r3, r3
 800123e:	f043 0302 	orr.w	r3, r3, #2
 8001242:	8183      	strh	r3, [r0, #12]
 8001244:	4770      	bx	lr
 8001246:	bf00      	nop

08001248 <USART_WakeUpConfig>:
 8001248:	8983      	ldrh	r3, [r0, #12]
 800124a:	f423 6300 	bic.w	r3, r3, #2048	; 0x800
 800124e:	041b      	lsls	r3, r3, #16
 8001250:	0c1b      	lsrs	r3, r3, #16
 8001252:	8183      	strh	r3, [r0, #12]
 8001254:	8983      	ldrh	r3, [r0, #12]
 8001256:	b29b      	uxth	r3, r3
 8001258:	4319      	orrs	r1, r3
 800125a:	8181      	strh	r1, [r0, #12]
 800125c:	4770      	bx	lr
 800125e:	bf00      	nop

08001260 <USART_LINBreakDetectLengthConfig>:
 8001260:	8a03      	ldrh	r3, [r0, #16]
 8001262:	f023 0320 	bic.w	r3, r3, #32
 8001266:	041b      	lsls	r3, r3, #16
 8001268:	0c1b      	lsrs	r3, r3, #16
 800126a:	8203      	strh	r3, [r0, #16]
 800126c:	8a03      	ldrh	r3, [r0, #16]
 800126e:	b29b      	uxth	r3, r3
 8001270:	4319      	orrs	r1, r3
 8001272:	8201      	strh	r1, [r0, #16]
 8001274:	4770      	bx	lr
 8001276:	bf00      	nop

08001278 <USART_LINCmd>:
 8001278:	8a03      	ldrh	r3, [r0, #16]
 800127a:	b929      	cbnz	r1, 8001288 <USART_LINCmd+0x10>
 800127c:	f423 4380 	bic.w	r3, r3, #16384	; 0x4000
 8001280:	041b      	lsls	r3, r3, #16
 8001282:	0c1b      	lsrs	r3, r3, #16
 8001284:	8203      	strh	r3, [r0, #16]
 8001286:	4770      	bx	lr
 8001288:	b29b      	uxth	r3, r3
 800128a:	f443 4380 	orr.w	r3, r3, #16384	; 0x4000
 800128e:	8203      	strh	r3, [r0, #16]
 8001290:	4770      	bx	lr
 8001292:	bf00      	nop

08001294 <USART_SendBreak>:
 8001294:	8983      	ldrh	r3, [r0, #12]
 8001296:	b29b      	uxth	r3, r3
 8001298:	f043 0301 	orr.w	r3, r3, #1
 800129c:	8183      	strh	r3, [r0, #12]
 800129e:	4770      	bx	lr

080012a0 <USART_HalfDuplexCmd>:
 80012a0:	8a83      	ldrh	r3, [r0, #20]
 80012a2:	b929      	cbnz	r1, 80012b0 <USART_HalfDuplexCmd+0x10>
 80012a4:	f023 0308 	bic.w	r3, r3, #8
 80012a8:	041b      	lsls	r3, r3, #16
 80012aa:	0c1b      	lsrs	r3, r3, #16
 80012ac:	8283      	strh	r3, [r0, #20]
 80012ae:	4770      	bx	lr
 80012b0:	b29b      	uxth	r3, r3
 80012b2:	f043 0308 	orr.w	r3, r3, #8
 80012b6:	8283      	strh	r3, [r0, #20]
 80012b8:	4770      	bx	lr
 80012ba:	bf00      	nop

080012bc <USART_SetGuardTime>:
 80012bc:	8b03      	ldrh	r3, [r0, #24]
 80012be:	b2db      	uxtb	r3, r3
 80012c0:	8303      	strh	r3, [r0, #24]
 80012c2:	8b03      	ldrh	r3, [r0, #24]
 80012c4:	b29b      	uxth	r3, r3
 80012c6:	ea43 2101 	orr.w	r1, r3, r1, lsl #8
 80012ca:	8301      	strh	r1, [r0, #24]
 80012cc:	4770      	bx	lr
 80012ce:	bf00      	nop

080012d0 <USART_SmartCardCmd>:
 80012d0:	8a83      	ldrh	r3, [r0, #20]
 80012d2:	b929      	cbnz	r1, 80012e0 <USART_SmartCardCmd+0x10>
 80012d4:	f023 0320 	bic.w	r3, r3, #32
 80012d8:	041b      	lsls	r3, r3, #16
 80012da:	0c1b      	lsrs	r3, r3, #16
 80012dc:	8283      	strh	r3, [r0, #20]
 80012de:	4770      	bx	lr
 80012e0:	b29b      	uxth	r3, r3
 80012e2:	f043 0320 	orr.w	r3, r3, #32
 80012e6:	8283      	strh	r3, [r0, #20]
 80012e8:	4770      	bx	lr
 80012ea:	bf00      	nop

080012ec <USART_SmartCardNACKCmd>:
 80012ec:	8a83      	ldrh	r3, [r0, #20]
 80012ee:	b929      	cbnz	r1, 80012fc <USART_SmartCardNACKCmd+0x10>
 80012f0:	f023 0310 	bic.w	r3, r3, #16
 80012f4:	041b      	lsls	r3, r3, #16
 80012f6:	0c1b      	lsrs	r3, r3, #16
 80012f8:	8283      	strh	r3, [r0, #20]
 80012fa:	4770      	bx	lr
 80012fc:	b29b      	uxth	r3, r3
 80012fe:	f043 0310 	orr.w	r3, r3, #16
 8001302:	8283      	strh	r3, [r0, #20]
 8001304:	4770      	bx	lr
 8001306:	bf00      	nop

08001308 <USART_IrDAConfig>:
 8001308:	8a83      	ldrh	r3, [r0, #20]
 800130a:	f023 0304 	bic.w	r3, r3, #4
 800130e:	041b      	lsls	r3, r3, #16
 8001310:	0c1b      	lsrs	r3, r3, #16
 8001312:	8283      	strh	r3, [r0, #20]
 8001314:	8a83      	ldrh	r3, [r0, #20]
 8001316:	b29b      	uxth	r3, r3
 8001318:	4319      	orrs	r1, r3
 800131a:	8281      	strh	r1, [r0, #20]
 800131c:	4770      	bx	lr
 800131e:	bf00      	nop

08001320 <USART_IrDACmd>:
 8001320:	8a83      	ldrh	r3, [r0, #20]
 8001322:	b929      	cbnz	r1, 8001330 <USART_IrDACmd+0x10>
 8001324:	f023 0302 	bic.w	r3, r3, #2
 8001328:	041b      	lsls	r3, r3, #16
 800132a:	0c1b      	lsrs	r3, r3, #16
 800132c:	8283      	strh	r3, [r0, #20]
 800132e:	4770      	bx	lr
 8001330:	b29b      	uxth	r3, r3
 8001332:	f043 0302 	orr.w	r3, r3, #2
 8001336:	8283      	strh	r3, [r0, #20]
 8001338:	4770      	bx	lr
 800133a:	bf00      	nop

0800133c <USART_DMACmd>:
 800133c:	8a83      	ldrh	r3, [r0, #20]
 800133e:	b29b      	uxth	r3, r3
 8001340:	b91a      	cbnz	r2, 800134a <USART_DMACmd+0xe>
 8001342:	ea23 0101 	bic.w	r1, r3, r1
 8001346:	8281      	strh	r1, [r0, #20]
 8001348:	4770      	bx	lr
 800134a:	4319      	orrs	r1, r3
 800134c:	8281      	strh	r1, [r0, #20]
 800134e:	4770      	bx	lr

08001350 <USART_ITConfig>:
 8001350:	b410      	push	{r4}
 8001352:	f001 041f 	and.w	r4, r1, #31
 8001356:	f3c1 1142 	ubfx	r1, r1, #5, #3
 800135a:	2301      	movs	r3, #1
 800135c:	2901      	cmp	r1, #1
 800135e:	fa03 f304 	lsl.w	r3, r3, r4
 8001362:	d011      	beq.n	8001388 <USART_ITConfig+0x38>
 8001364:	2902      	cmp	r1, #2
 8001366:	bf0c      	ite	eq
 8001368:	3010      	addeq	r0, #16
 800136a:	3014      	addne	r0, #20
 800136c:	b932      	cbnz	r2, 800137c <USART_ITConfig+0x2c>
 800136e:	6802      	ldr	r2, [r0, #0]
 8001370:	f85d 4b04 	ldr.w	r4, [sp], #4
 8001374:	ea22 0303 	bic.w	r3, r2, r3
 8001378:	6003      	str	r3, [r0, #0]
 800137a:	4770      	bx	lr
 800137c:	6802      	ldr	r2, [r0, #0]
 800137e:	f85d 4b04 	ldr.w	r4, [sp], #4
 8001382:	4313      	orrs	r3, r2
 8001384:	6003      	str	r3, [r0, #0]
 8001386:	4770      	bx	lr
 8001388:	300c      	adds	r0, #12
 800138a:	e7ef      	b.n	800136c <USART_ITConfig+0x1c>

0800138c <USART_GetFlagStatus>:
 800138c:	8803      	ldrh	r3, [r0, #0]
 800138e:	4219      	tst	r1, r3
 8001390:	bf14      	ite	ne
 8001392:	2001      	movne	r0, #1
 8001394:	2000      	moveq	r0, #0
 8001396:	4770      	bx	lr

08001398 <USART_ClearFlag>:
 8001398:	43c9      	mvns	r1, r1
 800139a:	b289      	uxth	r1, r1
 800139c:	8001      	strh	r1, [r0, #0]
 800139e:	4770      	bx	lr

080013a0 <USART_GetITStatus>:
 80013a0:	f3c1 1242 	ubfx	r2, r1, #5, #3
 80013a4:	b410      	push	{r4}
 80013a6:	2301      	movs	r3, #1
 80013a8:	f001 041f 	and.w	r4, r1, #31
 80013ac:	2a01      	cmp	r2, #1
 80013ae:	fa03 f304 	lsl.w	r3, r3, r4
 80013b2:	d017      	beq.n	80013e4 <USART_GetITStatus+0x44>
 80013b4:	2a02      	cmp	r2, #2
 80013b6:	bf0c      	ite	eq
 80013b8:	8a02      	ldrheq	r2, [r0, #16]
 80013ba:	8a82      	ldrhne	r2, [r0, #20]
 80013bc:	b292      	uxth	r2, r2
 80013be:	4013      	ands	r3, r2
 80013c0:	8802      	ldrh	r2, [r0, #0]
 80013c2:	b292      	uxth	r2, r2
 80013c4:	b153      	cbz	r3, 80013dc <USART_GetITStatus+0x3c>
 80013c6:	2301      	movs	r3, #1
 80013c8:	0a09      	lsrs	r1, r1, #8
 80013ca:	fa03 f101 	lsl.w	r1, r3, r1
 80013ce:	420a      	tst	r2, r1
 80013d0:	bf14      	ite	ne
 80013d2:	4618      	movne	r0, r3
 80013d4:	2000      	moveq	r0, #0
 80013d6:	f85d 4b04 	ldr.w	r4, [sp], #4
 80013da:	4770      	bx	lr
 80013dc:	4618      	mov	r0, r3
 80013de:	f85d 4b04 	ldr.w	r4, [sp], #4
 80013e2:	4770      	bx	lr
 80013e4:	8982      	ldrh	r2, [r0, #12]
 80013e6:	b292      	uxth	r2, r2
 80013e8:	4013      	ands	r3, r2
 80013ea:	e7e9      	b.n	80013c0 <USART_GetITStatus+0x20>

080013ec <USART_ClearITPendingBit>:
 80013ec:	0a09      	lsrs	r1, r1, #8
 80013ee:	2301      	movs	r3, #1
 80013f0:	fa03 f101 	lsl.w	r1, r3, r1
 80013f4:	43c9      	mvns	r1, r1
 80013f6:	b289      	uxth	r1, r1
 80013f8:	8001      	strh	r1, [r0, #0]
 80013fa:	4770      	bx	lr

080013fc <_exit>:
 80013fc:	e7fe      	b.n	80013fc <_exit>
 80013fe:	bf00      	nop

08001400 <_close>:
 8001400:	f04f 30ff 	mov.w	r0, #4294967295
 8001404:	4770      	bx	lr
 8001406:	bf00      	nop

08001408 <_execve>:
 8001408:	4b02      	ldr	r3, [pc, #8]	; (8001414 <_execve+0xc>)
 800140a:	220c      	movs	r2, #12
 800140c:	601a      	str	r2, [r3, #0]
 800140e:	f04f 30ff 	mov.w	r0, #4294967295
 8001412:	4770      	bx	lr
 8001414:	200011d4 	.word	0x200011d4

08001418 <_fork>:
 8001418:	4b02      	ldr	r3, [pc, #8]	; (8001424 <_fork+0xc>)
 800141a:	220b      	movs	r2, #11
 800141c:	601a      	str	r2, [r3, #0]
 800141e:	f04f 30ff 	mov.w	r0, #4294967295
 8001422:	4770      	bx	lr
 8001424:	200011d4 	.word	0x200011d4

08001428 <_fstat>:
 8001428:	f44f 5300 	mov.w	r3, #8192	; 0x2000
 800142c:	604b      	str	r3, [r1, #4]
 800142e:	2000      	movs	r0, #0
 8001430:	4770      	bx	lr
 8001432:	bf00      	nop

08001434 <_getpid>:
 8001434:	2001      	movs	r0, #1
 8001436:	4770      	bx	lr

08001438 <_isatty>:
 8001438:	2000      	movs	r0, #0
 800143a:	4770      	bx	lr

0800143c <_kill>:
 800143c:	4b02      	ldr	r3, [pc, #8]	; (8001448 <_kill+0xc>)
 800143e:	2216      	movs	r2, #22
 8001440:	601a      	str	r2, [r3, #0]
 8001442:	f04f 30ff 	mov.w	r0, #4294967295
 8001446:	4770      	bx	lr
 8001448:	200011d4 	.word	0x200011d4

0800144c <_link>:
 800144c:	4b02      	ldr	r3, [pc, #8]	; (8001458 <_link+0xc>)
 800144e:	221f      	movs	r2, #31
 8001450:	601a      	str	r2, [r3, #0]
 8001452:	f04f 30ff 	mov.w	r0, #4294967295
 8001456:	4770      	bx	lr
 8001458:	200011d4 	.word	0x200011d4

0800145c <_lseek>:
 800145c:	2000      	movs	r0, #0
 800145e:	4770      	bx	lr

08001460 <_sbrk>:
 8001460:	490a      	ldr	r1, [pc, #40]	; (800148c <_sbrk+0x2c>)
 8001462:	680b      	ldr	r3, [r1, #0]
 8001464:	b173      	cbz	r3, 8001484 <_sbrk+0x24>
 8001466:	f3ef 8208 	mrs	r2, MSP
 800146a:	4418      	add	r0, r3
 800146c:	4290      	cmp	r0, r2
 800146e:	d802      	bhi.n	8001476 <_sbrk+0x16>
 8001470:	6008      	str	r0, [r1, #0]
 8001472:	4618      	mov	r0, r3
 8001474:	4770      	bx	lr
 8001476:	4b06      	ldr	r3, [pc, #24]	; (8001490 <_sbrk+0x30>)
 8001478:	220c      	movs	r2, #12
 800147a:	601a      	str	r2, [r3, #0]
 800147c:	f04f 33ff 	mov.w	r3, #4294967295
 8001480:	4618      	mov	r0, r3
 8001482:	4770      	bx	lr
 8001484:	4b03      	ldr	r3, [pc, #12]	; (8001494 <_sbrk+0x34>)
 8001486:	600b      	str	r3, [r1, #0]
 8001488:	e7ed      	b.n	8001466 <_sbrk+0x6>
 800148a:	bf00      	nop
 800148c:	20000870 	.word	0x20000870
 8001490:	200011d4 	.word	0x200011d4
 8001494:	200011d8 	.word	0x200011d8

08001498 <_read>:
 8001498:	2000      	movs	r0, #0
 800149a:	4770      	bx	lr

0800149c <_stat>:
 800149c:	f44f 5300 	mov.w	r3, #8192	; 0x2000
 80014a0:	604b      	str	r3, [r1, #4]
 80014a2:	2000      	movs	r0, #0
 80014a4:	4770      	bx	lr
 80014a6:	bf00      	nop

080014a8 <_unlink>:
 80014a8:	4b02      	ldr	r3, [pc, #8]	; (80014b4 <_unlink+0xc>)
 80014aa:	2202      	movs	r2, #2
 80014ac:	601a      	str	r2, [r3, #0]
 80014ae:	f04f 30ff 	mov.w	r0, #4294967295
 80014b2:	4770      	bx	lr
 80014b4:	200011d4 	.word	0x200011d4

080014b8 <_wait>:
 80014b8:	4b02      	ldr	r3, [pc, #8]	; (80014c4 <_wait+0xc>)
 80014ba:	220a      	movs	r2, #10
 80014bc:	601a      	str	r2, [r3, #0]
 80014be:	f04f 30ff 	mov.w	r0, #4294967295
 80014c2:	4770      	bx	lr
 80014c4:	200011d4 	.word	0x200011d4

080014c8 <_write>:
 80014c8:	2000      	movs	r0, #0
 80014ca:	4770      	bx	lr

080014cc <CAN_DeInit>:
 80014cc:	b508      	push	{r3, lr}
 80014ce:	4b0d      	ldr	r3, [pc, #52]	; (8001504 <CAN_DeInit+0x38>)
 80014d0:	4298      	cmp	r0, r3
 80014d2:	f04f 0101 	mov.w	r1, #1
 80014d6:	d00a      	beq.n	80014ee <CAN_DeInit+0x22>
 80014d8:	f04f 6080 	mov.w	r0, #67108864	; 0x4000000
 80014dc:	f7ff fca4 	bl	8000e28 <RCC_APB1PeriphResetCmd>
 80014e0:	2100      	movs	r1, #0
 80014e2:	f04f 6080 	mov.w	r0, #67108864	; 0x4000000
 80014e6:	e8bd 4008 	ldmia.w	sp!, {r3, lr}
 80014ea:	f7ff bc9d 	b.w	8000e28 <RCC_APB1PeriphResetCmd>
 80014ee:	f04f 7000 	mov.w	r0, #33554432	; 0x2000000
 80014f2:	f7ff fc99 	bl	8000e28 <RCC_APB1PeriphResetCmd>
 80014f6:	2100      	movs	r1, #0
 80014f8:	f04f 7000 	mov.w	r0, #33554432	; 0x2000000
 80014fc:	e8bd 4008 	ldmia.w	sp!, {r3, lr}
 8001500:	f7ff bc92 	b.w	8000e28 <RCC_APB1PeriphResetCmd>
 8001504:	40006400 	.word	0x40006400

08001508 <CAN_Init>:
 8001508:	6803      	ldr	r3, [r0, #0]
 800150a:	f023 0302 	bic.w	r3, r3, #2
 800150e:	6003      	str	r3, [r0, #0]
 8001510:	6803      	ldr	r3, [r0, #0]
 8001512:	f043 0301 	orr.w	r3, r3, #1
 8001516:	6003      	str	r3, [r0, #0]
 8001518:	6843      	ldr	r3, [r0, #4]
 800151a:	07db      	lsls	r3, r3, #31
 800151c:	d407      	bmi.n	800152e <CAN_Init+0x26>
 800151e:	f64f 73ff 	movw	r3, #65535	; 0xffff
 8001522:	e001      	b.n	8001528 <CAN_Init+0x20>
 8001524:	3b01      	subs	r3, #1
 8001526:	d002      	beq.n	800152e <CAN_Init+0x26>
 8001528:	6842      	ldr	r2, [r0, #4]
 800152a:	07d2      	lsls	r2, r2, #31
 800152c:	d5fa      	bpl.n	8001524 <CAN_Init+0x1c>
 800152e:	6843      	ldr	r3, [r0, #4]
 8001530:	f013 0301 	ands.w	r3, r3, #1
 8001534:	d05b      	beq.n	80015ee <CAN_Init+0xe6>
 8001536:	798b      	ldrb	r3, [r1, #6]
 8001538:	2b01      	cmp	r3, #1
 800153a:	6803      	ldr	r3, [r0, #0]
 800153c:	bf0c      	ite	eq
 800153e:	f043 0380 	orreq.w	r3, r3, #128	; 0x80
 8001542:	f023 0380 	bicne.w	r3, r3, #128	; 0x80
 8001546:	b430      	push	{r4, r5}
 8001548:	6003      	str	r3, [r0, #0]
 800154a:	79cb      	ldrb	r3, [r1, #7]
 800154c:	2b01      	cmp	r3, #1
 800154e:	6803      	ldr	r3, [r0, #0]
 8001550:	bf0c      	ite	eq
 8001552:	f043 0340 	orreq.w	r3, r3, #64	; 0x40
 8001556:	f023 0340 	bicne.w	r3, r3, #64	; 0x40
 800155a:	6003      	str	r3, [r0, #0]
 800155c:	7a0b      	ldrb	r3, [r1, #8]
 800155e:	2b01      	cmp	r3, #1
 8001560:	6803      	ldr	r3, [r0, #0]
 8001562:	bf0c      	ite	eq
 8001564:	f043 0320 	orreq.w	r3, r3, #32
 8001568:	f023 0320 	bicne.w	r3, r3, #32
 800156c:	6003      	str	r3, [r0, #0]
 800156e:	7a4b      	ldrb	r3, [r1, #9]
 8001570:	2b01      	cmp	r3, #1
 8001572:	6803      	ldr	r3, [r0, #0]
 8001574:	bf0c      	ite	eq
 8001576:	f043 0310 	orreq.w	r3, r3, #16
 800157a:	f023 0310 	bicne.w	r3, r3, #16
 800157e:	6003      	str	r3, [r0, #0]
 8001580:	7a8b      	ldrb	r3, [r1, #10]
 8001582:	2b01      	cmp	r3, #1
 8001584:	6803      	ldr	r3, [r0, #0]
 8001586:	bf0c      	ite	eq
 8001588:	f043 0308 	orreq.w	r3, r3, #8
 800158c:	f023 0308 	bicne.w	r3, r3, #8
 8001590:	6003      	str	r3, [r0, #0]
 8001592:	7acb      	ldrb	r3, [r1, #11]
 8001594:	2b01      	cmp	r3, #1
 8001596:	6803      	ldr	r3, [r0, #0]
 8001598:	bf0c      	ite	eq
 800159a:	f043 0304 	orreq.w	r3, r3, #4
 800159e:	f023 0304 	bicne.w	r3, r3, #4
 80015a2:	6003      	str	r3, [r0, #0]
 80015a4:	78ca      	ldrb	r2, [r1, #3]
 80015a6:	788d      	ldrb	r5, [r1, #2]
 80015a8:	790b      	ldrb	r3, [r1, #4]
 80015aa:	794c      	ldrb	r4, [r1, #5]
 80015ac:	8809      	ldrh	r1, [r1, #0]
 80015ae:	0612      	lsls	r2, r2, #24
 80015b0:	ea42 7285 	orr.w	r2, r2, r5, lsl #30
 80015b4:	ea42 4303 	orr.w	r3, r2, r3, lsl #16
 80015b8:	ea43 5304 	orr.w	r3, r3, r4, lsl #20
 80015bc:	1e4a      	subs	r2, r1, #1
 80015be:	4313      	orrs	r3, r2
 80015c0:	61c3      	str	r3, [r0, #28]
 80015c2:	6803      	ldr	r3, [r0, #0]
 80015c4:	f023 0301 	bic.w	r3, r3, #1
 80015c8:	6003      	str	r3, [r0, #0]
 80015ca:	6843      	ldr	r3, [r0, #4]
 80015cc:	07d9      	lsls	r1, r3, #31
 80015ce:	d507      	bpl.n	80015e0 <CAN_Init+0xd8>
 80015d0:	f64f 73ff 	movw	r3, #65535	; 0xffff
 80015d4:	e001      	b.n	80015da <CAN_Init+0xd2>
 80015d6:	3b01      	subs	r3, #1
 80015d8:	d002      	beq.n	80015e0 <CAN_Init+0xd8>
 80015da:	6842      	ldr	r2, [r0, #4]
 80015dc:	07d2      	lsls	r2, r2, #31
 80015de:	d4fa      	bmi.n	80015d6 <CAN_Init+0xce>
 80015e0:	6840      	ldr	r0, [r0, #4]
 80015e2:	f000 0001 	and.w	r0, r0, #1
 80015e6:	f080 0001 	eor.w	r0, r0, #1
 80015ea:	bc30      	pop	{r4, r5}
 80015ec:	4770      	bx	lr
 80015ee:	4618      	mov	r0, r3
 80015f0:	4770      	bx	lr
 80015f2:	bf00      	nop

080015f4 <CAN_FilterInit>:
 80015f4:	4b3a      	ldr	r3, [pc, #232]	; (80016e0 <CAN_FilterInit+0xec>)
 80015f6:	7a82      	ldrb	r2, [r0, #10]
 80015f8:	f8d3 1200 	ldr.w	r1, [r3, #512]	; 0x200
 80015fc:	f041 0101 	orr.w	r1, r1, #1
 8001600:	b4f0      	push	{r4, r5, r6, r7}
 8001602:	f8c3 1200 	str.w	r1, [r3, #512]	; 0x200
 8001606:	2101      	movs	r1, #1
 8001608:	fa01 f202 	lsl.w	r2, r1, r2
 800160c:	f8d3 121c 	ldr.w	r1, [r3, #540]	; 0x21c
 8001610:	43d4      	mvns	r4, r2
 8001612:	4021      	ands	r1, r4
 8001614:	f8c3 121c 	str.w	r1, [r3, #540]	; 0x21c
 8001618:	7b01      	ldrb	r1, [r0, #12]
 800161a:	b9b1      	cbnz	r1, 800164a <CAN_FilterInit+0x56>
 800161c:	f8d3 520c 	ldr.w	r5, [r3, #524]	; 0x20c
 8001620:	88c7      	ldrh	r7, [r0, #6]
 8001622:	8846      	ldrh	r6, [r0, #2]
 8001624:	492f      	ldr	r1, [pc, #188]	; (80016e4 <CAN_FilterInit+0xf0>)
 8001626:	4025      	ands	r5, r4
 8001628:	f8c3 520c 	str.w	r5, [r3, #524]	; 0x20c
 800162c:	7a85      	ldrb	r5, [r0, #10]
 800162e:	3548      	adds	r5, #72	; 0x48
 8001630:	ea46 4607 	orr.w	r6, r6, r7, lsl #16
 8001634:	f843 6035 	str.w	r6, [r3, r5, lsl #3]
 8001638:	7a85      	ldrb	r5, [r0, #10]
 800163a:	8886      	ldrh	r6, [r0, #4]
 800163c:	8803      	ldrh	r3, [r0, #0]
 800163e:	00ed      	lsls	r5, r5, #3
 8001640:	4429      	add	r1, r5
 8001642:	ea43 4306 	orr.w	r3, r3, r6, lsl #16
 8001646:	604b      	str	r3, [r1, #4]
 8001648:	7b01      	ldrb	r1, [r0, #12]
 800164a:	2901      	cmp	r1, #1
 800164c:	d030      	beq.n	80016b0 <CAN_FilterInit+0xbc>
 800164e:	7ac3      	ldrb	r3, [r0, #11]
 8001650:	4923      	ldr	r1, [pc, #140]	; (80016e0 <CAN_FilterInit+0xec>)
 8001652:	bb3b      	cbnz	r3, 80016a4 <CAN_FilterInit+0xb0>
 8001654:	f8d1 3204 	ldr.w	r3, [r1, #516]	; 0x204
 8001658:	4023      	ands	r3, r4
 800165a:	f8c1 3204 	str.w	r3, [r1, #516]	; 0x204
 800165e:	8903      	ldrh	r3, [r0, #8]
 8001660:	b9bb      	cbnz	r3, 8001692 <CAN_FilterInit+0x9e>
 8001662:	491f      	ldr	r1, [pc, #124]	; (80016e0 <CAN_FilterInit+0xec>)
 8001664:	f8d1 3214 	ldr.w	r3, [r1, #532]	; 0x214
 8001668:	401c      	ands	r4, r3
 800166a:	f8c1 4214 	str.w	r4, [r1, #532]	; 0x214
 800166e:	7b43      	ldrb	r3, [r0, #13]
 8001670:	2b01      	cmp	r3, #1
 8001672:	d105      	bne.n	8001680 <CAN_FilterInit+0x8c>
 8001674:	491a      	ldr	r1, [pc, #104]	; (80016e0 <CAN_FilterInit+0xec>)
 8001676:	f8d1 321c 	ldr.w	r3, [r1, #540]	; 0x21c
 800167a:	431a      	orrs	r2, r3
 800167c:	f8c1 221c 	str.w	r2, [r1, #540]	; 0x21c
 8001680:	4a17      	ldr	r2, [pc, #92]	; (80016e0 <CAN_FilterInit+0xec>)
 8001682:	f8d2 3200 	ldr.w	r3, [r2, #512]	; 0x200
 8001686:	f023 0301 	bic.w	r3, r3, #1
 800168a:	f8c2 3200 	str.w	r3, [r2, #512]	; 0x200
 800168e:	bcf0      	pop	{r4, r5, r6, r7}
 8001690:	4770      	bx	lr
 8001692:	2b01      	cmp	r3, #1
 8001694:	d1eb      	bne.n	800166e <CAN_FilterInit+0x7a>
 8001696:	4912      	ldr	r1, [pc, #72]	; (80016e0 <CAN_FilterInit+0xec>)
 8001698:	f8d1 3214 	ldr.w	r3, [r1, #532]	; 0x214
 800169c:	4313      	orrs	r3, r2
 800169e:	f8c1 3214 	str.w	r3, [r1, #532]	; 0x214
 80016a2:	e7e4      	b.n	800166e <CAN_FilterInit+0x7a>
 80016a4:	f8d1 3204 	ldr.w	r3, [r1, #516]	; 0x204
 80016a8:	4313      	orrs	r3, r2
 80016aa:	f8c1 3204 	str.w	r3, [r1, #516]	; 0x204
 80016ae:	e7d6      	b.n	800165e <CAN_FilterInit+0x6a>
 80016b0:	490b      	ldr	r1, [pc, #44]	; (80016e0 <CAN_FilterInit+0xec>)
 80016b2:	8807      	ldrh	r7, [r0, #0]
 80016b4:	f8d1 520c 	ldr.w	r5, [r1, #524]	; 0x20c
 80016b8:	8846      	ldrh	r6, [r0, #2]
 80016ba:	4b0a      	ldr	r3, [pc, #40]	; (80016e4 <CAN_FilterInit+0xf0>)
 80016bc:	4315      	orrs	r5, r2
 80016be:	f8c1 520c 	str.w	r5, [r1, #524]	; 0x20c
 80016c2:	7a85      	ldrb	r5, [r0, #10]
 80016c4:	3548      	adds	r5, #72	; 0x48
 80016c6:	ea46 4607 	orr.w	r6, r6, r7, lsl #16
 80016ca:	f841 6035 	str.w	r6, [r1, r5, lsl #3]
 80016ce:	7a85      	ldrb	r5, [r0, #10]
 80016d0:	8886      	ldrh	r6, [r0, #4]
 80016d2:	88c1      	ldrh	r1, [r0, #6]
 80016d4:	00ed      	lsls	r5, r5, #3
 80016d6:	442b      	add	r3, r5
 80016d8:	ea41 4106 	orr.w	r1, r1, r6, lsl #16
 80016dc:	6059      	str	r1, [r3, #4]
 80016de:	e7b6      	b.n	800164e <CAN_FilterInit+0x5a>
 80016e0:	40006400 	.word	0x40006400
 80016e4:	40006640 	.word	0x40006640

080016e8 <CAN_StructInit>:
 80016e8:	2300      	movs	r3, #0
 80016ea:	b410      	push	{r4}
 80016ec:	2102      	movs	r1, #2
 80016ee:	2403      	movs	r4, #3
 80016f0:	2201      	movs	r2, #1
 80016f2:	7104      	strb	r4, [r0, #4]
 80016f4:	7141      	strb	r1, [r0, #5]
 80016f6:	8002      	strh	r2, [r0, #0]
 80016f8:	7183      	strb	r3, [r0, #6]
 80016fa:	71c3      	strb	r3, [r0, #7]
 80016fc:	7203      	strb	r3, [r0, #8]
 80016fe:	7243      	strb	r3, [r0, #9]
 8001700:	7283      	strb	r3, [r0, #10]
 8001702:	72c3      	strb	r3, [r0, #11]
 8001704:	7083      	strb	r3, [r0, #2]
 8001706:	70c3      	strb	r3, [r0, #3]
 8001708:	f85d 4b04 	ldr.w	r4, [sp], #4
 800170c:	4770      	bx	lr
 800170e:	bf00      	nop

08001710 <CAN_SlaveStartBank>:
 8001710:	4b0d      	ldr	r3, [pc, #52]	; (8001748 <CAN_SlaveStartBank+0x38>)
 8001712:	f8d3 2200 	ldr.w	r2, [r3, #512]	; 0x200
 8001716:	f042 0201 	orr.w	r2, r2, #1
 800171a:	f8c3 2200 	str.w	r2, [r3, #512]	; 0x200
 800171e:	f8d3 2200 	ldr.w	r2, [r3, #512]	; 0x200
 8001722:	f422 527c 	bic.w	r2, r2, #16128	; 0x3f00
 8001726:	f022 020e 	bic.w	r2, r2, #14
 800172a:	f8c3 2200 	str.w	r2, [r3, #512]	; 0x200
 800172e:	f8d3 2200 	ldr.w	r2, [r3, #512]	; 0x200
 8001732:	ea42 2000 	orr.w	r0, r2, r0, lsl #8
 8001736:	f8c3 0200 	str.w	r0, [r3, #512]	; 0x200
 800173a:	f8d3 2200 	ldr.w	r2, [r3, #512]	; 0x200
 800173e:	f022 0201 	bic.w	r2, r2, #1
 8001742:	f8c3 2200 	str.w	r2, [r3, #512]	; 0x200
 8001746:	4770      	bx	lr
 8001748:	40006400 	.word	0x40006400

0800174c <CAN_DBGFreeze>:
 800174c:	6803      	ldr	r3, [r0, #0]
 800174e:	b919      	cbnz	r1, 8001758 <CAN_DBGFreeze+0xc>
 8001750:	f423 3380 	bic.w	r3, r3, #65536	; 0x10000
 8001754:	6003      	str	r3, [r0, #0]
 8001756:	4770      	bx	lr
 8001758:	f443 3380 	orr.w	r3, r3, #65536	; 0x10000
 800175c:	6003      	str	r3, [r0, #0]
 800175e:	4770      	bx	lr

08001760 <CAN_TTComModeCmd>:
 8001760:	6803      	ldr	r3, [r0, #0]
 8001762:	b9a9      	cbnz	r1, 8001790 <CAN_TTComModeCmd+0x30>
 8001764:	f023 0380 	bic.w	r3, r3, #128	; 0x80
 8001768:	6003      	str	r3, [r0, #0]
 800176a:	f8d0 3184 	ldr.w	r3, [r0, #388]	; 0x184
 800176e:	f423 7380 	bic.w	r3, r3, #256	; 0x100
 8001772:	f8c0 3184 	str.w	r3, [r0, #388]	; 0x184
 8001776:	f8d0 3194 	ldr.w	r3, [r0, #404]	; 0x194
 800177a:	f423 7380 	bic.w	r3, r3, #256	; 0x100
 800177e:	f8c0 3194 	str.w	r3, [r0, #404]	; 0x194
 8001782:	f8d0 31a4 	ldr.w	r3, [r0, #420]	; 0x1a4
 8001786:	f423 7380 	bic.w	r3, r3, #256	; 0x100
 800178a:	f8c0 31a4 	str.w	r3, [r0, #420]	; 0x1a4
 800178e:	4770      	bx	lr
 8001790:	f043 0380 	orr.w	r3, r3, #128	; 0x80
 8001794:	6003      	str	r3, [r0, #0]
 8001796:	f8d0 3184 	ldr.w	r3, [r0, #388]	; 0x184
 800179a:	f443 7380 	orr.w	r3, r3, #256	; 0x100
 800179e:	f8c0 3184 	str.w	r3, [r0, #388]	; 0x184
 80017a2:	f8d0 3194 	ldr.w	r3, [r0, #404]	; 0x194
 80017a6:	f443 7380 	orr.w	r3, r3, #256	; 0x100
 80017aa:	f8c0 3194 	str.w	r3, [r0, #404]	; 0x194
 80017ae:	f8d0 31a4 	ldr.w	r3, [r0, #420]	; 0x1a4
 80017b2:	f443 7380 	orr.w	r3, r3, #256	; 0x100
 80017b6:	f8c0 31a4 	str.w	r3, [r0, #420]	; 0x1a4
 80017ba:	4770      	bx	lr

080017bc <CAN_Transmit>:
 80017bc:	6883      	ldr	r3, [r0, #8]
 80017be:	b4f0      	push	{r4, r5, r6, r7}
 80017c0:	4604      	mov	r4, r0
 80017c2:	0158      	lsls	r0, r3, #5
 80017c4:	d405      	bmi.n	80017d2 <CAN_Transmit+0x16>
 80017c6:	68a3      	ldr	r3, [r4, #8]
 80017c8:	011a      	lsls	r2, r3, #4
 80017ca:	d543      	bpl.n	8001854 <CAN_Transmit+0x98>
 80017cc:	2201      	movs	r2, #1
 80017ce:	4610      	mov	r0, r2
 80017d0:	e001      	b.n	80017d6 <CAN_Transmit+0x1a>
 80017d2:	2200      	movs	r2, #0
 80017d4:	4610      	mov	r0, r2
 80017d6:	0112      	lsls	r2, r2, #4
 80017d8:	18a3      	adds	r3, r4, r2
 80017da:	f8d3 5180 	ldr.w	r5, [r3, #384]	; 0x180
 80017de:	f005 0501 	and.w	r5, r5, #1
 80017e2:	f8c3 5180 	str.w	r5, [r3, #384]	; 0x180
 80017e6:	7a0d      	ldrb	r5, [r1, #8]
 80017e8:	b355      	cbz	r5, 8001840 <CAN_Transmit+0x84>
 80017ea:	684e      	ldr	r6, [r1, #4]
 80017ec:	f8d3 7180 	ldr.w	r7, [r3, #384]	; 0x180
 80017f0:	ea45 05c6 	orr.w	r5, r5, r6, lsl #3
 80017f4:	7a4e      	ldrb	r6, [r1, #9]
 80017f6:	433d      	orrs	r5, r7
 80017f8:	4335      	orrs	r5, r6
 80017fa:	f8c3 5180 	str.w	r5, [r3, #384]	; 0x180
 80017fe:	7a8d      	ldrb	r5, [r1, #10]
 8001800:	f005 050f 	and.w	r5, r5, #15
 8001804:	728d      	strb	r5, [r1, #10]
 8001806:	f8d3 5184 	ldr.w	r5, [r3, #388]	; 0x184
 800180a:	f025 050f 	bic.w	r5, r5, #15
 800180e:	f8c3 5184 	str.w	r5, [r3, #388]	; 0x184
 8001812:	7a8e      	ldrb	r6, [r1, #10]
 8001814:	f8d3 5184 	ldr.w	r5, [r3, #388]	; 0x184
 8001818:	4335      	orrs	r5, r6
 800181a:	f8c3 5184 	str.w	r5, [r3, #388]	; 0x184
 800181e:	4422      	add	r2, r4
 8001820:	f8d1 400b 	ldr.w	r4, [r1, #11]
 8001824:	f8c2 4188 	str.w	r4, [r2, #392]	; 0x188
 8001828:	f8d1 100f 	ldr.w	r1, [r1, #15]
 800182c:	f8c2 118c 	str.w	r1, [r2, #396]	; 0x18c
 8001830:	f8d3 2180 	ldr.w	r2, [r3, #384]	; 0x180
 8001834:	f042 0201 	orr.w	r2, r2, #1
 8001838:	f8c3 2180 	str.w	r2, [r3, #384]	; 0x180
 800183c:	bcf0      	pop	{r4, r5, r6, r7}
 800183e:	4770      	bx	lr
 8001840:	680f      	ldr	r7, [r1, #0]
 8001842:	7a4d      	ldrb	r5, [r1, #9]
 8001844:	f8d3 6180 	ldr.w	r6, [r3, #384]	; 0x180
 8001848:	ea45 5547 	orr.w	r5, r5, r7, lsl #21
 800184c:	4335      	orrs	r5, r6
 800184e:	f8c3 5180 	str.w	r5, [r3, #384]	; 0x180
 8001852:	e7d4      	b.n	80017fe <CAN_Transmit+0x42>
 8001854:	68a3      	ldr	r3, [r4, #8]
 8001856:	00db      	lsls	r3, r3, #3
 8001858:	d502      	bpl.n	8001860 <CAN_Transmit+0xa4>
 800185a:	2202      	movs	r2, #2
 800185c:	4610      	mov	r0, r2
 800185e:	e7ba      	b.n	80017d6 <CAN_Transmit+0x1a>
 8001860:	2004      	movs	r0, #4
 8001862:	bcf0      	pop	{r4, r5, r6, r7}
 8001864:	4770      	bx	lr
 8001866:	bf00      	nop

08001868 <CAN_TransmitStatus>:
 8001868:	2901      	cmp	r1, #1
 800186a:	d01a      	beq.n	80018a2 <CAN_TransmitStatus+0x3a>
 800186c:	d315      	bcc.n	800189a <CAN_TransmitStatus+0x32>
 800186e:	2902      	cmp	r1, #2
 8001870:	d10f      	bne.n	8001892 <CAN_TransmitStatus+0x2a>
 8001872:	6882      	ldr	r2, [r0, #8]
 8001874:	4b0d      	ldr	r3, [pc, #52]	; (80018ac <CAN_TransmitStatus+0x44>)
 8001876:	4013      	ands	r3, r2
 8001878:	4a0d      	ldr	r2, [pc, #52]	; (80018b0 <CAN_TransmitStatus+0x48>)
 800187a:	4293      	cmp	r3, r2
 800187c:	d006      	beq.n	800188c <CAN_TransmitStatus+0x24>
 800187e:	d907      	bls.n	8001890 <CAN_TransmitStatus+0x28>
 8001880:	4a0c      	ldr	r2, [pc, #48]	; (80018b4 <CAN_TransmitStatus+0x4c>)
 8001882:	4293      	cmp	r3, r2
 8001884:	d002      	beq.n	800188c <CAN_TransmitStatus+0x24>
 8001886:	4a09      	ldr	r2, [pc, #36]	; (80018ac <CAN_TransmitStatus+0x44>)
 8001888:	4293      	cmp	r3, r2
 800188a:	d104      	bne.n	8001896 <CAN_TransmitStatus+0x2e>
 800188c:	2001      	movs	r0, #1
 800188e:	4770      	bx	lr
 8001890:	b90b      	cbnz	r3, 8001896 <CAN_TransmitStatus+0x2e>
 8001892:	2002      	movs	r0, #2
 8001894:	4770      	bx	lr
 8001896:	2000      	movs	r0, #0
 8001898:	4770      	bx	lr
 800189a:	6882      	ldr	r2, [r0, #8]
 800189c:	4b04      	ldr	r3, [pc, #16]	; (80018b0 <CAN_TransmitStatus+0x48>)
 800189e:	4013      	ands	r3, r2
 80018a0:	e7ea      	b.n	8001878 <CAN_TransmitStatus+0x10>
 80018a2:	6882      	ldr	r2, [r0, #8]
 80018a4:	4b03      	ldr	r3, [pc, #12]	; (80018b4 <CAN_TransmitStatus+0x4c>)
 80018a6:	4013      	ands	r3, r2
 80018a8:	e7e6      	b.n	8001878 <CAN_TransmitStatus+0x10>
 80018aa:	bf00      	nop
 80018ac:	10030000 	.word	0x10030000
 80018b0:	04000003 	.word	0x04000003
 80018b4:	08000300 	.word	0x08000300

080018b8 <CAN_CancelTransmit>:
 80018b8:	2901      	cmp	r1, #1
 80018ba:	d00d      	beq.n	80018d8 <CAN_CancelTransmit+0x20>
 80018bc:	d307      	bcc.n	80018ce <CAN_CancelTransmit+0x16>
 80018be:	2902      	cmp	r1, #2
 80018c0:	d104      	bne.n	80018cc <CAN_CancelTransmit+0x14>
 80018c2:	6883      	ldr	r3, [r0, #8]
 80018c4:	f443 0300 	orr.w	r3, r3, #8388608	; 0x800000
 80018c8:	6083      	str	r3, [r0, #8]
 80018ca:	4770      	bx	lr
 80018cc:	4770      	bx	lr
 80018ce:	6883      	ldr	r3, [r0, #8]
 80018d0:	f043 0380 	orr.w	r3, r3, #128	; 0x80
 80018d4:	6083      	str	r3, [r0, #8]
 80018d6:	4770      	bx	lr
 80018d8:	6883      	ldr	r3, [r0, #8]
 80018da:	f443 4300 	orr.w	r3, r3, #32768	; 0x8000
 80018de:	6083      	str	r3, [r0, #8]
 80018e0:	4770      	bx	lr
 80018e2:	bf00      	nop

080018e4 <CAN_Receive>:
 80018e4:	b410      	push	{r4}
 80018e6:	eb00 1401 	add.w	r4, r0, r1, lsl #4
 80018ea:	f8d4 31b0 	ldr.w	r3, [r4, #432]	; 0x1b0
 80018ee:	f003 0304 	and.w	r3, r3, #4
 80018f2:	b2db      	uxtb	r3, r3
 80018f4:	7213      	strb	r3, [r2, #8]
 80018f6:	bbcb      	cbnz	r3, 800196c <CAN_Receive+0x88>
 80018f8:	f8d4 31b0 	ldr.w	r3, [r4, #432]	; 0x1b0
 80018fc:	0d5b      	lsrs	r3, r3, #21
 80018fe:	6013      	str	r3, [r2, #0]
 8001900:	f8d4 31b0 	ldr.w	r3, [r4, #432]	; 0x1b0
 8001904:	f003 0302 	and.w	r3, r3, #2
 8001908:	7253      	strb	r3, [r2, #9]
 800190a:	f8d4 31b4 	ldr.w	r3, [r4, #436]	; 0x1b4
 800190e:	f003 030f 	and.w	r3, r3, #15
 8001912:	7293      	strb	r3, [r2, #10]
 8001914:	f8d4 41b4 	ldr.w	r4, [r4, #436]	; 0x1b4
 8001918:	eb00 1301 	add.w	r3, r0, r1, lsl #4
 800191c:	0a24      	lsrs	r4, r4, #8
 800191e:	74d4      	strb	r4, [r2, #19]
 8001920:	f8d3 41b8 	ldr.w	r4, [r3, #440]	; 0x1b8
 8001924:	72d4      	strb	r4, [r2, #11]
 8001926:	f8d3 41b8 	ldr.w	r4, [r3, #440]	; 0x1b8
 800192a:	0a24      	lsrs	r4, r4, #8
 800192c:	7314      	strb	r4, [r2, #12]
 800192e:	f8d3 41b8 	ldr.w	r4, [r3, #440]	; 0x1b8
 8001932:	0c24      	lsrs	r4, r4, #16
 8001934:	7354      	strb	r4, [r2, #13]
 8001936:	f8d3 41b8 	ldr.w	r4, [r3, #440]	; 0x1b8
 800193a:	0e24      	lsrs	r4, r4, #24
 800193c:	7394      	strb	r4, [r2, #14]
 800193e:	f8d3 41bc 	ldr.w	r4, [r3, #444]	; 0x1bc
 8001942:	73d4      	strb	r4, [r2, #15]
 8001944:	f8d3 41bc 	ldr.w	r4, [r3, #444]	; 0x1bc
 8001948:	0a24      	lsrs	r4, r4, #8
 800194a:	7414      	strb	r4, [r2, #16]
 800194c:	f8d3 41bc 	ldr.w	r4, [r3, #444]	; 0x1bc
 8001950:	0c24      	lsrs	r4, r4, #16
 8001952:	7454      	strb	r4, [r2, #17]
 8001954:	f8d3 31bc 	ldr.w	r3, [r3, #444]	; 0x1bc
 8001958:	0e1b      	lsrs	r3, r3, #24
 800195a:	7493      	strb	r3, [r2, #18]
 800195c:	b159      	cbz	r1, 8001976 <CAN_Receive+0x92>
 800195e:	6903      	ldr	r3, [r0, #16]
 8001960:	f85d 4b04 	ldr.w	r4, [sp], #4
 8001964:	f043 0320 	orr.w	r3, r3, #32
 8001968:	6103      	str	r3, [r0, #16]
 800196a:	4770      	bx	lr
 800196c:	f8d4 31b0 	ldr.w	r3, [r4, #432]	; 0x1b0
 8001970:	08db      	lsrs	r3, r3, #3
 8001972:	6053      	str	r3, [r2, #4]
 8001974:	e7c4      	b.n	8001900 <CAN_Receive+0x1c>
 8001976:	68c3      	ldr	r3, [r0, #12]
 8001978:	f85d 4b04 	ldr.w	r4, [sp], #4
 800197c:	f043 0320 	orr.w	r3, r3, #32
 8001980:	60c3      	str	r3, [r0, #12]
 8001982:	4770      	bx	lr

08001984 <CAN_FIFORelease>:
 8001984:	b121      	cbz	r1, 8001990 <CAN_FIFORelease+0xc>
 8001986:	6903      	ldr	r3, [r0, #16]
 8001988:	f043 0320 	orr.w	r3, r3, #32
 800198c:	6103      	str	r3, [r0, #16]
 800198e:	4770      	bx	lr
 8001990:	68c3      	ldr	r3, [r0, #12]
 8001992:	f043 0320 	orr.w	r3, r3, #32
 8001996:	60c3      	str	r3, [r0, #12]
 8001998:	4770      	bx	lr
 800199a:	bf00      	nop

0800199c <CAN_MessagePending>:
 800199c:	b131      	cbz	r1, 80019ac <CAN_MessagePending+0x10>
 800199e:	2901      	cmp	r1, #1
 80019a0:	bf06      	itte	eq
 80019a2:	6900      	ldreq	r0, [r0, #16]
 80019a4:	f000 0003 	andeq.w	r0, r0, #3
 80019a8:	2000      	movne	r0, #0
 80019aa:	4770      	bx	lr
 80019ac:	68c0      	ldr	r0, [r0, #12]
 80019ae:	f000 0003 	and.w	r0, r0, #3
 80019b2:	4770      	bx	lr

080019b4 <CAN_OperatingModeRequest>:
 80019b4:	b9e9      	cbnz	r1, 80019f2 <CAN_OperatingModeRequest+0x3e>
 80019b6:	6803      	ldr	r3, [r0, #0]
 80019b8:	f023 0303 	bic.w	r3, r3, #3
 80019bc:	f043 0301 	orr.w	r3, r3, #1
 80019c0:	6003      	str	r3, [r0, #0]
 80019c2:	6843      	ldr	r3, [r0, #4]
 80019c4:	f003 0303 	and.w	r3, r3, #3
 80019c8:	2b01      	cmp	r3, #1
 80019ca:	d009      	beq.n	80019e0 <CAN_OperatingModeRequest+0x2c>
 80019cc:	f64f 72ff 	movw	r2, #65535	; 0xffff
 80019d0:	e001      	b.n	80019d6 <CAN_OperatingModeRequest+0x22>
 80019d2:	3a01      	subs	r2, #1
 80019d4:	d004      	beq.n	80019e0 <CAN_OperatingModeRequest+0x2c>
 80019d6:	6843      	ldr	r3, [r0, #4]
 80019d8:	f003 0303 	and.w	r3, r3, #3
 80019dc:	2b01      	cmp	r3, #1
 80019de:	d1f8      	bne.n	80019d2 <CAN_OperatingModeRequest+0x1e>
 80019e0:	6840      	ldr	r0, [r0, #4]
 80019e2:	f000 0003 	and.w	r0, r0, #3
 80019e6:	f1a0 0001 	sub.w	r0, r0, #1
 80019ea:	fab0 f080 	clz	r0, r0
 80019ee:	0940      	lsrs	r0, r0, #5
 80019f0:	4770      	bx	lr
 80019f2:	2901      	cmp	r1, #1
 80019f4:	d003      	beq.n	80019fe <CAN_OperatingModeRequest+0x4a>
 80019f6:	2902      	cmp	r1, #2
 80019f8:	d017      	beq.n	8001a2a <CAN_OperatingModeRequest+0x76>
 80019fa:	2000      	movs	r0, #0
 80019fc:	4770      	bx	lr
 80019fe:	6803      	ldr	r3, [r0, #0]
 8001a00:	f023 0303 	bic.w	r3, r3, #3
 8001a04:	6003      	str	r3, [r0, #0]
 8001a06:	6843      	ldr	r3, [r0, #4]
 8001a08:	0799      	lsls	r1, r3, #30
 8001a0a:	d007      	beq.n	8001a1c <CAN_OperatingModeRequest+0x68>
 8001a0c:	f64f 73ff 	movw	r3, #65535	; 0xffff
 8001a10:	e001      	b.n	8001a16 <CAN_OperatingModeRequest+0x62>
 8001a12:	3b01      	subs	r3, #1
 8001a14:	d002      	beq.n	8001a1c <CAN_OperatingModeRequest+0x68>
 8001a16:	6842      	ldr	r2, [r0, #4]
 8001a18:	0792      	lsls	r2, r2, #30
 8001a1a:	d1fa      	bne.n	8001a12 <CAN_OperatingModeRequest+0x5e>
 8001a1c:	6843      	ldr	r3, [r0, #4]
 8001a1e:	f013 0f03 	tst.w	r3, #3
 8001a22:	bf0c      	ite	eq
 8001a24:	2001      	moveq	r0, #1
 8001a26:	2000      	movne	r0, #0
 8001a28:	4770      	bx	lr
 8001a2a:	6803      	ldr	r3, [r0, #0]
 8001a2c:	f023 0303 	bic.w	r3, r3, #3
 8001a30:	f043 0302 	orr.w	r3, r3, #2
 8001a34:	6003      	str	r3, [r0, #0]
 8001a36:	6843      	ldr	r3, [r0, #4]
 8001a38:	f003 0303 	and.w	r3, r3, #3
 8001a3c:	2b02      	cmp	r3, #2
 8001a3e:	d009      	beq.n	8001a54 <CAN_OperatingModeRequest+0xa0>
 8001a40:	f64f 72ff 	movw	r2, #65535	; 0xffff
 8001a44:	e001      	b.n	8001a4a <CAN_OperatingModeRequest+0x96>
 8001a46:	3a01      	subs	r2, #1
 8001a48:	d004      	beq.n	8001a54 <CAN_OperatingModeRequest+0xa0>
 8001a4a:	6843      	ldr	r3, [r0, #4]
 8001a4c:	f003 0303 	and.w	r3, r3, #3
 8001a50:	2b02      	cmp	r3, #2
 8001a52:	d1f8      	bne.n	8001a46 <CAN_OperatingModeRequest+0x92>
 8001a54:	6840      	ldr	r0, [r0, #4]
 8001a56:	f000 0003 	and.w	r0, r0, #3
 8001a5a:	f1a0 0002 	sub.w	r0, r0, #2
 8001a5e:	fab0 f080 	clz	r0, r0
 8001a62:	0940      	lsrs	r0, r0, #5
 8001a64:	4770      	bx	lr
 8001a66:	bf00      	nop

08001a68 <CAN_Sleep>:
 8001a68:	6803      	ldr	r3, [r0, #0]
 8001a6a:	f023 0303 	bic.w	r3, r3, #3
 8001a6e:	f043 0302 	orr.w	r3, r3, #2
 8001a72:	6003      	str	r3, [r0, #0]
 8001a74:	6840      	ldr	r0, [r0, #4]
 8001a76:	f000 0003 	and.w	r0, r0, #3
 8001a7a:	f1a0 0002 	sub.w	r0, r0, #2
 8001a7e:	fab0 f080 	clz	r0, r0
 8001a82:	0940      	lsrs	r0, r0, #5
 8001a84:	4770      	bx	lr
 8001a86:	bf00      	nop

08001a88 <CAN_WakeUp>:
 8001a88:	6803      	ldr	r3, [r0, #0]
 8001a8a:	f023 0302 	bic.w	r3, r3, #2
 8001a8e:	6003      	str	r3, [r0, #0]
 8001a90:	6843      	ldr	r3, [r0, #4]
 8001a92:	0799      	lsls	r1, r3, #30
 8001a94:	d507      	bpl.n	8001aa6 <CAN_WakeUp+0x1e>
 8001a96:	f64f 73ff 	movw	r3, #65535	; 0xffff
 8001a9a:	e001      	b.n	8001aa0 <CAN_WakeUp+0x18>
 8001a9c:	3b01      	subs	r3, #1
 8001a9e:	d002      	beq.n	8001aa6 <CAN_WakeUp+0x1e>
 8001aa0:	6842      	ldr	r2, [r0, #4]
 8001aa2:	0792      	lsls	r2, r2, #30
 8001aa4:	d4fa      	bmi.n	8001a9c <CAN_WakeUp+0x14>
 8001aa6:	6840      	ldr	r0, [r0, #4]
 8001aa8:	f080 0002 	eor.w	r0, r0, #2
 8001aac:	f3c0 0040 	ubfx	r0, r0, #1, #1
 8001ab0:	4770      	bx	lr
 8001ab2:	bf00      	nop

08001ab4 <CAN_GetLastErrorCode>:
 8001ab4:	6980      	ldr	r0, [r0, #24]
 8001ab6:	f000 0070 	and.w	r0, r0, #112	; 0x70
 8001aba:	4770      	bx	lr

08001abc <CAN_GetReceiveErrorCounter>:
 8001abc:	6980      	ldr	r0, [r0, #24]
 8001abe:	0e00      	lsrs	r0, r0, #24
 8001ac0:	4770      	bx	lr
 8001ac2:	bf00      	nop

08001ac4 <CAN_GetLSBTransmitErrorCounter>:
 8001ac4:	6980      	ldr	r0, [r0, #24]
 8001ac6:	f3c0 4007 	ubfx	r0, r0, #16, #8
 8001aca:	4770      	bx	lr

08001acc <CAN_ITConfig>:
 8001acc:	6943      	ldr	r3, [r0, #20]
 8001ace:	b91a      	cbnz	r2, 8001ad8 <CAN_ITConfig+0xc>
 8001ad0:	ea23 0101 	bic.w	r1, r3, r1
 8001ad4:	6141      	str	r1, [r0, #20]
 8001ad6:	4770      	bx	lr
 8001ad8:	4319      	orrs	r1, r3
 8001ada:	6141      	str	r1, [r0, #20]
 8001adc:	4770      	bx	lr
 8001ade:	bf00      	nop

08001ae0 <CAN_GetFlagStatus>:
 8001ae0:	f411 0f70 	tst.w	r1, #15728640	; 0xf00000
 8001ae4:	d007      	beq.n	8001af6 <CAN_GetFlagStatus+0x16>
 8001ae6:	6983      	ldr	r3, [r0, #24]
 8001ae8:	f3c3 0313 	ubfx	r3, r3, #0, #20
 8001aec:	420b      	tst	r3, r1
 8001aee:	bf14      	ite	ne
 8001af0:	2001      	movne	r0, #1
 8001af2:	2000      	moveq	r0, #0
 8001af4:	4770      	bx	lr
 8001af6:	01cb      	lsls	r3, r1, #7
 8001af8:	d507      	bpl.n	8001b0a <CAN_GetFlagStatus+0x2a>
 8001afa:	6843      	ldr	r3, [r0, #4]
 8001afc:	f3c3 0313 	ubfx	r3, r3, #0, #20
 8001b00:	420b      	tst	r3, r1
 8001b02:	bf14      	ite	ne
 8001b04:	2001      	movne	r0, #1
 8001b06:	2000      	moveq	r0, #0
 8001b08:	4770      	bx	lr
 8001b0a:	010a      	lsls	r2, r1, #4
 8001b0c:	d507      	bpl.n	8001b1e <CAN_GetFlagStatus+0x3e>
 8001b0e:	6883      	ldr	r3, [r0, #8]
 8001b10:	f3c3 0313 	ubfx	r3, r3, #0, #20
 8001b14:	420b      	tst	r3, r1
 8001b16:	bf14      	ite	ne
 8001b18:	2001      	movne	r0, #1
 8001b1a:	2000      	moveq	r0, #0
 8001b1c:	4770      	bx	lr
 8001b1e:	018b      	lsls	r3, r1, #6
 8001b20:	bf4c      	ite	mi
 8001b22:	68c3      	ldrmi	r3, [r0, #12]
 8001b24:	6903      	ldrpl	r3, [r0, #16]
 8001b26:	f3c3 0313 	ubfx	r3, r3, #0, #20
 8001b2a:	420b      	tst	r3, r1
 8001b2c:	bf14      	ite	ne
 8001b2e:	2001      	movne	r0, #1
 8001b30:	2000      	moveq	r0, #0
 8001b32:	4770      	bx	lr

08001b34 <CAN_ClearFlag>:
 8001b34:	4b0a      	ldr	r3, [pc, #40]	; (8001b60 <CAN_ClearFlag+0x2c>)
 8001b36:	4299      	cmp	r1, r3
 8001b38:	d00c      	beq.n	8001b54 <CAN_ClearFlag+0x20>
 8001b3a:	018a      	lsls	r2, r1, #6
 8001b3c:	f3c1 0313 	ubfx	r3, r1, #0, #20
 8001b40:	d406      	bmi.n	8001b50 <CAN_ClearFlag+0x1c>
 8001b42:	014a      	lsls	r2, r1, #5
 8001b44:	d409      	bmi.n	8001b5a <CAN_ClearFlag+0x26>
 8001b46:	010a      	lsls	r2, r1, #4
 8001b48:	bf4c      	ite	mi
 8001b4a:	6083      	strmi	r3, [r0, #8]
 8001b4c:	6043      	strpl	r3, [r0, #4]
 8001b4e:	4770      	bx	lr
 8001b50:	60c3      	str	r3, [r0, #12]
 8001b52:	4770      	bx	lr
 8001b54:	2300      	movs	r3, #0
 8001b56:	6183      	str	r3, [r0, #24]
 8001b58:	4770      	bx	lr
 8001b5a:	6103      	str	r3, [r0, #16]
 8001b5c:	4770      	bx	lr
 8001b5e:	bf00      	nop
 8001b60:	30f00070 	.word	0x30f00070

08001b64 <CAN_GetITStatus>:
 8001b64:	6943      	ldr	r3, [r0, #20]
 8001b66:	400b      	ands	r3, r1
 8001b68:	d01e      	beq.n	8001ba8 <CAN_GetITStatus+0x44>
 8001b6a:	2940      	cmp	r1, #64	; 0x40
 8001b6c:	d067      	beq.n	8001c3e <CAN_GetITStatus+0xda>
 8001b6e:	d90e      	bls.n	8001b8e <CAN_GetITStatus+0x2a>
 8001b70:	f5b1 6f00 	cmp.w	r1, #2048	; 0x800
 8001b74:	d05c      	beq.n	8001c30 <CAN_GetITStatus+0xcc>
 8001b76:	d819      	bhi.n	8001bac <CAN_GetITStatus+0x48>
 8001b78:	f5b1 7f00 	cmp.w	r1, #512	; 0x200
 8001b7c:	d050      	beq.n	8001c20 <CAN_GetITStatus+0xbc>
 8001b7e:	f5b1 6f80 	cmp.w	r1, #1024	; 0x400
 8001b82:	d037      	beq.n	8001bf4 <CAN_GetITStatus+0x90>
 8001b84:	f5b1 7f80 	cmp.w	r1, #256	; 0x100
 8001b88:	d027      	beq.n	8001bda <CAN_GetITStatus+0x76>
 8001b8a:	2000      	movs	r0, #0
 8001b8c:	4770      	bx	lr
 8001b8e:	2904      	cmp	r1, #4
 8001b90:	d04a      	beq.n	8001c28 <CAN_GetITStatus+0xc4>
 8001b92:	d918      	bls.n	8001bc6 <CAN_GetITStatus+0x62>
 8001b94:	2910      	cmp	r1, #16
 8001b96:	d03d      	beq.n	8001c14 <CAN_GetITStatus+0xb0>
 8001b98:	2920      	cmp	r1, #32
 8001b9a:	d037      	beq.n	8001c0c <CAN_GetITStatus+0xa8>
 8001b9c:	2908      	cmp	r1, #8
 8001b9e:	d1f4      	bne.n	8001b8a <CAN_GetITStatus+0x26>
 8001ba0:	68c0      	ldr	r0, [r0, #12]
 8001ba2:	f3c0 1000 	ubfx	r0, r0, #4, #1
 8001ba6:	4770      	bx	lr
 8001ba8:	4618      	mov	r0, r3
 8001baa:	4770      	bx	lr
 8001bac:	f5b1 3f80 	cmp.w	r1, #65536	; 0x10000
 8001bb0:	d024      	beq.n	8001bfc <CAN_GetITStatus+0x98>
 8001bb2:	f5b1 3f00 	cmp.w	r1, #131072	; 0x20000
 8001bb6:	d025      	beq.n	8001c04 <CAN_GetITStatus+0xa0>
 8001bb8:	f5b1 4f00 	cmp.w	r1, #32768	; 0x8000
 8001bbc:	d1e5      	bne.n	8001b8a <CAN_GetITStatus+0x26>
 8001bbe:	6840      	ldr	r0, [r0, #4]
 8001bc0:	f3c0 0080 	ubfx	r0, r0, #2, #1
 8001bc4:	4770      	bx	lr
 8001bc6:	2901      	cmp	r1, #1
 8001bc8:	d00b      	beq.n	8001be2 <CAN_GetITStatus+0x7e>
 8001bca:	2902      	cmp	r1, #2
 8001bcc:	d1dd      	bne.n	8001b8a <CAN_GetITStatus+0x26>
 8001bce:	68c0      	ldr	r0, [r0, #12]
 8001bd0:	f010 0003 	ands.w	r0, r0, #3
 8001bd4:	bf18      	it	ne
 8001bd6:	2001      	movne	r0, #1
 8001bd8:	4770      	bx	lr
 8001bda:	6980      	ldr	r0, [r0, #24]
 8001bdc:	f000 0001 	and.w	r0, r0, #1
 8001be0:	4770      	bx	lr
 8001be2:	6880      	ldr	r0, [r0, #8]
 8001be4:	f000 3001 	and.w	r0, r0, #16843009	; 0x1010101
 8001be8:	f020 7080 	bic.w	r0, r0, #16777216	; 0x1000000
 8001bec:	3000      	adds	r0, #0
 8001bee:	bf18      	it	ne
 8001bf0:	2001      	movne	r0, #1
 8001bf2:	4770      	bx	lr
 8001bf4:	6980      	ldr	r0, [r0, #24]
 8001bf6:	f3c0 0080 	ubfx	r0, r0, #2, #1
 8001bfa:	4770      	bx	lr
 8001bfc:	6840      	ldr	r0, [r0, #4]
 8001bfe:	f3c0 00c0 	ubfx	r0, r0, #3, #1
 8001c02:	4770      	bx	lr
 8001c04:	6840      	ldr	r0, [r0, #4]
 8001c06:	f3c0 1000 	ubfx	r0, r0, #4, #1
 8001c0a:	4770      	bx	lr
 8001c0c:	6900      	ldr	r0, [r0, #16]
 8001c0e:	f3c0 00c0 	ubfx	r0, r0, #3, #1
 8001c12:	4770      	bx	lr
 8001c14:	6900      	ldr	r0, [r0, #16]
 8001c16:	f010 0003 	ands.w	r0, r0, #3
 8001c1a:	bf18      	it	ne
 8001c1c:	2001      	movne	r0, #1
 8001c1e:	4770      	bx	lr
 8001c20:	6980      	ldr	r0, [r0, #24]
 8001c22:	f3c0 0040 	ubfx	r0, r0, #1, #1
 8001c26:	4770      	bx	lr
 8001c28:	68c0      	ldr	r0, [r0, #12]
 8001c2a:	f3c0 00c0 	ubfx	r0, r0, #3, #1
 8001c2e:	4770      	bx	lr
 8001c30:	6983      	ldr	r3, [r0, #24]
 8001c32:	f013 0f70 	tst.w	r3, #112	; 0x70
 8001c36:	bf14      	ite	ne
 8001c38:	2001      	movne	r0, #1
 8001c3a:	2000      	moveq	r0, #0
 8001c3c:	4770      	bx	lr
 8001c3e:	6900      	ldr	r0, [r0, #16]
 8001c40:	f3c0 1000 	ubfx	r0, r0, #4, #1
 8001c44:	4770      	bx	lr
 8001c46:	bf00      	nop

08001c48 <CAN_ClearITPendingBit>:
 8001c48:	f5b1 7f80 	cmp.w	r1, #256	; 0x100
 8001c4c:	d01e      	beq.n	8001c8c <CAN_ClearITPendingBit+0x44>
 8001c4e:	d90d      	bls.n	8001c6c <CAN_ClearITPendingBit+0x24>
 8001c50:	f5b1 6f00 	cmp.w	r1, #2048	; 0x800
 8001c54:	d024      	beq.n	8001ca0 <CAN_ClearITPendingBit+0x58>
 8001c56:	d913      	bls.n	8001c80 <CAN_ClearITPendingBit+0x38>
 8001c58:	f5b1 3f80 	cmp.w	r1, #65536	; 0x10000
 8001c5c:	d025      	beq.n	8001caa <CAN_ClearITPendingBit+0x62>
 8001c5e:	f5b1 3f00 	cmp.w	r1, #131072	; 0x20000
 8001c62:	d02e      	beq.n	8001cc2 <CAN_ClearITPendingBit+0x7a>
 8001c64:	f5b1 4f00 	cmp.w	r1, #32768	; 0x8000
 8001c68:	d01a      	beq.n	8001ca0 <CAN_ClearITPendingBit+0x58>
 8001c6a:	4770      	bx	lr
 8001c6c:	2908      	cmp	r1, #8
 8001c6e:	d01f      	beq.n	8001cb0 <CAN_ClearITPendingBit+0x68>
 8001c70:	d90f      	bls.n	8001c92 <CAN_ClearITPendingBit+0x4a>
 8001c72:	2920      	cmp	r1, #32
 8001c74:	d022      	beq.n	8001cbc <CAN_ClearITPendingBit+0x74>
 8001c76:	2940      	cmp	r1, #64	; 0x40
 8001c78:	d127      	bne.n	8001cca <CAN_ClearITPendingBit+0x82>
 8001c7a:	2310      	movs	r3, #16
 8001c7c:	6103      	str	r3, [r0, #16]
 8001c7e:	4770      	bx	lr
 8001c80:	f5b1 7f00 	cmp.w	r1, #512	; 0x200
 8001c84:	d002      	beq.n	8001c8c <CAN_ClearITPendingBit+0x44>
 8001c86:	f5b1 6f80 	cmp.w	r1, #1024	; 0x400
 8001c8a:	d11d      	bne.n	8001cc8 <CAN_ClearITPendingBit+0x80>
 8001c8c:	2304      	movs	r3, #4
 8001c8e:	6043      	str	r3, [r0, #4]
 8001c90:	4770      	bx	lr
 8001c92:	2901      	cmp	r1, #1
 8001c94:	d00f      	beq.n	8001cb6 <CAN_ClearITPendingBit+0x6e>
 8001c96:	2904      	cmp	r1, #4
 8001c98:	d118      	bne.n	8001ccc <CAN_ClearITPendingBit+0x84>
 8001c9a:	2308      	movs	r3, #8
 8001c9c:	60c3      	str	r3, [r0, #12]
 8001c9e:	4770      	bx	lr
 8001ca0:	2200      	movs	r2, #0
 8001ca2:	2304      	movs	r3, #4
 8001ca4:	6182      	str	r2, [r0, #24]
 8001ca6:	6043      	str	r3, [r0, #4]
 8001ca8:	4770      	bx	lr
 8001caa:	2308      	movs	r3, #8
 8001cac:	6043      	str	r3, [r0, #4]
 8001cae:	4770      	bx	lr
 8001cb0:	2310      	movs	r3, #16
 8001cb2:	60c3      	str	r3, [r0, #12]
 8001cb4:	4770      	bx	lr
 8001cb6:	4b06      	ldr	r3, [pc, #24]	; (8001cd0 <CAN_ClearITPendingBit+0x88>)
 8001cb8:	6083      	str	r3, [r0, #8]
 8001cba:	4770      	bx	lr
 8001cbc:	2308      	movs	r3, #8
 8001cbe:	6103      	str	r3, [r0, #16]
 8001cc0:	4770      	bx	lr
 8001cc2:	2310      	movs	r3, #16
 8001cc4:	6043      	str	r3, [r0, #4]
 8001cc6:	4770      	bx	lr
 8001cc8:	4770      	bx	lr
 8001cca:	4770      	bx	lr
 8001ccc:	4770      	bx	lr
 8001cce:	bf00      	nop
 8001cd0:	00010101 	.word	0x00010101

08001cd4 <rt_OneStep>:
 8001cd4:	4a02      	ldr	r2, [pc, #8]	; (8001ce0 <rt_OneStep+0xc>)
 8001cd6:	6813      	ldr	r3, [r2, #0]
 8001cd8:	3301      	adds	r3, #1
 8001cda:	6013      	str	r3, [r2, #0]
 8001cdc:	4770      	bx	lr
 8001cde:	bf00      	nop
 8001ce0:	20000014 	.word	0x20000014

08001ce4 <SysTick_Handler>:
 8001ce4:	4a02      	ldr	r2, [pc, #8]	; (8001cf0 <SysTick_Handler+0xc>)
 8001ce6:	6813      	ldr	r3, [r2, #0]
 8001ce8:	3301      	adds	r3, #1
 8001cea:	6013      	str	r3, [r2, #0]
 8001cec:	4770      	bx	lr
 8001cee:	bf00      	nop
 8001cf0:	20000014 	.word	0x20000014

08001cf4 <main>:
 8001cf4:	b508      	push	{r3, lr}
 8001cf6:	f7fe fd8b 	bl	8000810 <SchlossBox_initialize>
 8001cfa:	4b0c      	ldr	r3, [pc, #48]	; (8001d2c <main+0x38>)
 8001cfc:	4a0c      	ldr	r2, [pc, #48]	; (8001d30 <main+0x3c>)
 8001cfe:	4c0d      	ldr	r4, [pc, #52]	; (8001d34 <main+0x40>)
 8001d00:	480d      	ldr	r0, [pc, #52]	; (8001d38 <main+0x44>)
 8001d02:	605a      	str	r2, [r3, #4]
 8001d04:	26f0      	movs	r6, #240	; 0xf0
 8001d06:	2100      	movs	r1, #0
 8001d08:	2207      	movs	r2, #7
 8001d0a:	4d0c      	ldr	r5, [pc, #48]	; (8001d3c <main+0x48>)
 8001d0c:	f880 6023 	strb.w	r6, [r0, #35]	; 0x23
 8001d10:	6099      	str	r1, [r3, #8]
 8001d12:	4626      	mov	r6, r4
 8001d14:	601a      	str	r2, [r3, #0]
 8001d16:	6822      	ldr	r2, [r4, #0]
 8001d18:	682b      	ldr	r3, [r5, #0]
 8001d1a:	429a      	cmp	r2, r3
 8001d1c:	d0fb      	beq.n	8001d16 <main+0x22>
 8001d1e:	6833      	ldr	r3, [r6, #0]
 8001d20:	3301      	adds	r3, #1
 8001d22:	6033      	str	r3, [r6, #0]
 8001d24:	f7fe faf8 	bl	8000318 <SchlossBox_step>
 8001d28:	e7f5      	b.n	8001d16 <main+0x22>
 8001d2a:	bf00      	nop
 8001d2c:	e000e010 	.word	0xe000e010
 8001d30:	0019a27f 	.word	0x0019a27f
 8001d34:	20000878 	.word	0x20000878
 8001d38:	e000ed00 	.word	0xe000ed00
 8001d3c:	20000014 	.word	0x20000014

08001d40 <CANReceive_filter_isr>:
 8001d40:	7a03      	ldrb	r3, [r0, #8]
 8001d42:	b103      	cbz	r3, 8001d46 <CANReceive_filter_isr+0x6>
 8001d44:	4770      	bx	lr
 8001d46:	b4f0      	push	{r4, r5, r6, r7}
 8001d48:	4f13      	ldr	r7, [pc, #76]	; (8001d98 <CANReceive_filter_isr+0x58>)
 8001d4a:	4e14      	ldr	r6, [pc, #80]	; (8001d9c <CANReceive_filter_isr+0x5c>)
 8001d4c:	883d      	ldrh	r5, [r7, #0]
 8001d4e:	883b      	ldrh	r3, [r7, #0]
 8001d50:	3301      	adds	r3, #1
 8001d52:	4604      	mov	r4, r0
 8001d54:	b29b      	uxth	r3, r3
 8001d56:	b2ad      	uxth	r5, r5
 8001d58:	6800      	ldr	r0, [r0, #0]
 8001d5a:	803b      	strh	r3, [r7, #0]
 8001d5c:	eb05 0585 	add.w	r5, r5, r5, lsl #2
 8001d60:	68a2      	ldr	r2, [r4, #8]
 8001d62:	68e3      	ldr	r3, [r4, #12]
 8001d64:	6861      	ldr	r1, [r4, #4]
 8001d66:	eb06 0585 	add.w	r5, r6, r5, lsl #2
 8001d6a:	883e      	ldrh	r6, [r7, #0]
 8001d6c:	c50f      	stmia	r5!, {r0, r1, r2, r3}
 8001d6e:	f006 0607 	and.w	r6, r6, #7
 8001d72:	803e      	strh	r6, [r7, #0]
 8001d74:	883a      	ldrh	r2, [r7, #0]
 8001d76:	887b      	ldrh	r3, [r7, #2]
 8001d78:	6920      	ldr	r0, [r4, #16]
 8001d7a:	6028      	str	r0, [r5, #0]
 8001d7c:	b292      	uxth	r2, r2
 8001d7e:	b29b      	uxth	r3, r3
 8001d80:	429a      	cmp	r2, r3
 8001d82:	d107      	bne.n	8001d94 <CANReceive_filter_isr+0x54>
 8001d84:	887b      	ldrh	r3, [r7, #2]
 8001d86:	3301      	adds	r3, #1
 8001d88:	b29b      	uxth	r3, r3
 8001d8a:	807b      	strh	r3, [r7, #2]
 8001d8c:	887b      	ldrh	r3, [r7, #2]
 8001d8e:	f003 0307 	and.w	r3, r3, #7
 8001d92:	807b      	strh	r3, [r7, #2]
 8001d94:	bcf0      	pop	{r4, r5, r6, r7}
 8001d96:	4770      	bx	lr
 8001d98:	2000087c 	.word	0x2000087c
 8001d9c:	200009b4 	.word	0x200009b4

08001da0 <CANReceive1_filter_isr>:
 8001da0:	7a03      	ldrb	r3, [r0, #8]
 8001da2:	b103      	cbz	r3, 8001da6 <CANReceive1_filter_isr+0x6>
 8001da4:	4770      	bx	lr
 8001da6:	b4f0      	push	{r4, r5, r6, r7}
 8001da8:	4f13      	ldr	r7, [pc, #76]	; (8001df8 <CANReceive1_filter_isr+0x58>)
 8001daa:	4e14      	ldr	r6, [pc, #80]	; (8001dfc <CANReceive1_filter_isr+0x5c>)
 8001dac:	88bd      	ldrh	r5, [r7, #4]
 8001dae:	88bb      	ldrh	r3, [r7, #4]
 8001db0:	3301      	adds	r3, #1
 8001db2:	4604      	mov	r4, r0
 8001db4:	b29b      	uxth	r3, r3
 8001db6:	b2ad      	uxth	r5, r5
 8001db8:	6800      	ldr	r0, [r0, #0]
 8001dba:	80bb      	strh	r3, [r7, #4]
 8001dbc:	eb05 0585 	add.w	r5, r5, r5, lsl #2
 8001dc0:	68a2      	ldr	r2, [r4, #8]
 8001dc2:	68e3      	ldr	r3, [r4, #12]
 8001dc4:	6861      	ldr	r1, [r4, #4]
 8001dc6:	eb06 0585 	add.w	r5, r6, r5, lsl #2
 8001dca:	88be      	ldrh	r6, [r7, #4]
 8001dcc:	c50f      	stmia	r5!, {r0, r1, r2, r3}
 8001dce:	f006 0607 	and.w	r6, r6, #7
 8001dd2:	80be      	strh	r6, [r7, #4]
 8001dd4:	88ba      	ldrh	r2, [r7, #4]
 8001dd6:	88fb      	ldrh	r3, [r7, #6]
 8001dd8:	6920      	ldr	r0, [r4, #16]
 8001dda:	6028      	str	r0, [r5, #0]
 8001ddc:	b292      	uxth	r2, r2
 8001dde:	b29b      	uxth	r3, r3
 8001de0:	429a      	cmp	r2, r3
 8001de2:	d107      	bne.n	8001df4 <CANReceive1_filter_isr+0x54>
 8001de4:	88fb      	ldrh	r3, [r7, #6]
 8001de6:	3301      	adds	r3, #1
 8001de8:	b29b      	uxth	r3, r3
 8001dea:	80fb      	strh	r3, [r7, #6]
 8001dec:	88fb      	ldrh	r3, [r7, #6]
 8001dee:	f003 0307 	and.w	r3, r3, #7
 8001df2:	80fb      	strh	r3, [r7, #6]
 8001df4:	bcf0      	pop	{r4, r5, r6, r7}
 8001df6:	4770      	bx	lr
 8001df8:	2000087c 	.word	0x2000087c
 8001dfc:	20000a6c 	.word	0x20000a6c

08001e00 <waijung_usart2_initial.part.3>:
 8001e00:	e92d 4ff0 	stmdb	sp!, {r4, r5, r6, r7, r8, r9, sl, fp, lr}
 8001e04:	4b49      	ldr	r3, [pc, #292]	; (8001f2c <waijung_usart2_initial.part.3+0x12c>)
 8001e06:	f8df 8140 	ldr.w	r8, [pc, #320]	; 8001f48 <waijung_usart2_initial.part.3+0x148>
 8001e0a:	4f49      	ldr	r7, [pc, #292]	; (8001f30 <waijung_usart2_initial.part.3+0x130>)
 8001e0c:	4c49      	ldr	r4, [pc, #292]	; (8001f34 <waijung_usart2_initial.part.3+0x134>)
 8001e0e:	f8df a13c 	ldr.w	sl, [pc, #316]	; 8001f4c <waijung_usart2_initial.part.3+0x14c>
 8001e12:	2601      	movs	r6, #1
 8001e14:	b087      	sub	sp, #28
 8001e16:	4631      	mov	r1, r6
 8001e18:	4630      	mov	r0, r6
 8001e1a:	721e      	strb	r6, [r3, #8]
 8001e1c:	f7fe ff94 	bl	8000d48 <RCC_AHB1PeriphClockCmd>
 8001e20:	4631      	mov	r1, r6
 8001e22:	f44f 3000 	mov.w	r0, #131072	; 0x20000
 8001e26:	f7fe ffb9 	bl	8000d9c <RCC_APB1PeriphClockCmd>
 8001e2a:	4631      	mov	r1, r6
 8001e2c:	f44f 1000 	mov.w	r0, #2097152	; 0x200000
 8001e30:	f7fe ff8a 	bl	8000d48 <RCC_AHB1PeriphClockCmd>
 8001e34:	4640      	mov	r0, r8
 8001e36:	2207      	movs	r2, #7
 8001e38:	2102      	movs	r1, #2
 8001e3a:	f001 fde9 	bl	8003a10 <GPIO_PinAFConfig>
 8001e3e:	f10d 0918 	add.w	r9, sp, #24
 8001e42:	2207      	movs	r2, #7
 8001e44:	4640      	mov	r0, r8
 8001e46:	2103      	movs	r1, #3
 8001e48:	f001 fde2 	bl	8003a10 <GPIO_PinAFConfig>
 8001e4c:	2304      	movs	r3, #4
 8001e4e:	f849 3d18 	str.w	r3, [r9, #-24]!
 8001e52:	2500      	movs	r5, #0
 8001e54:	4640      	mov	r0, r8
 8001e56:	4649      	mov	r1, r9
 8001e58:	2302      	movs	r3, #2
 8001e5a:	f04f 0b03 	mov.w	fp, #3
 8001e5e:	f88d 3004 	strb.w	r3, [sp, #4]
 8001e62:	f88d 6007 	strb.w	r6, [sp, #7]
 8001e66:	f88d 5006 	strb.w	r5, [sp, #6]
 8001e6a:	f88d b005 	strb.w	fp, [sp, #5]
 8001e6e:	f001 fd3d 	bl	80038ec <GPIO_Init>
 8001e72:	4649      	mov	r1, r9
 8001e74:	4640      	mov	r0, r8
 8001e76:	2308      	movs	r3, #8
 8001e78:	9300      	str	r3, [sp, #0]
 8001e7a:	f001 fd37 	bl	80038ec <GPIO_Init>
 8001e7e:	f44f 32e1 	mov.w	r2, #115200	; 0x1c200
 8001e82:	230c      	movs	r3, #12
 8001e84:	4631      	mov	r1, r6
 8001e86:	4638      	mov	r0, r7
 8001e88:	9202      	str	r2, [sp, #8]
 8001e8a:	f8ad 3012 	strh.w	r3, [sp, #18]
 8001e8e:	f8ad 500c 	strh.w	r5, [sp, #12]
 8001e92:	f8ad 500e 	strh.w	r5, [sp, #14]
 8001e96:	f8ad 5010 	strh.w	r5, [sp, #16]
 8001e9a:	f8ad 5014 	strh.w	r5, [sp, #20]
 8001e9e:	f7ff f995 	bl	80011cc <USART_OverSampling8Cmd>
 8001ea2:	4638      	mov	r0, r7
 8001ea4:	a902      	add	r1, sp, #8
 8001ea6:	f7ff f8f3 	bl	8001090 <USART_Init>
 8001eaa:	4631      	mov	r1, r6
 8001eac:	4638      	mov	r0, r7
 8001eae:	f7ff f975 	bl	800119c <USART_Cmd>
 8001eb2:	4b21      	ldr	r3, [pc, #132]	; (8001f38 <waijung_usart2_initial.part.3+0x138>)
 8001eb4:	4821      	ldr	r0, [pc, #132]	; (8001f3c <waijung_usart2_initial.part.3+0x13c>)
 8001eb6:	6063      	str	r3, [r4, #4]
 8001eb8:	f44f 6180 	mov.w	r1, #1024	; 0x400
 8001ebc:	f44f 3340 	mov.w	r3, #196608	; 0x30000
 8001ec0:	f04f 6900 	mov.w	r9, #134217728	; 0x8000000
 8001ec4:	f44f 7280 	mov.w	r2, #256	; 0x100
 8001ec8:	61a1      	str	r1, [r4, #24]
 8001eca:	60a0      	str	r0, [r4, #8]
 8001ecc:	4621      	mov	r1, r4
 8001ece:	f44f 7800 	mov.w	r8, #512	; 0x200
 8001ed2:	4650      	mov	r0, sl
 8001ed4:	62a3      	str	r3, [r4, #40]	; 0x28
 8001ed6:	6262      	str	r2, [r4, #36]	; 0x24
 8001ed8:	f8c4 b030 	str.w	fp, [r4, #48]	; 0x30
 8001edc:	6165      	str	r5, [r4, #20]
 8001ede:	61e5      	str	r5, [r4, #28]
 8001ee0:	6225      	str	r5, [r4, #32]
 8001ee2:	62e5      	str	r5, [r4, #44]	; 0x2c
 8001ee4:	6365      	str	r5, [r4, #52]	; 0x34
 8001ee6:	63a5      	str	r5, [r4, #56]	; 0x38
 8001ee8:	60e5      	str	r5, [r4, #12]
 8001eea:	f8c4 9000 	str.w	r9, [r4]
 8001eee:	f8c4 8010 	str.w	r8, [r4, #16]
 8001ef2:	f001 faad 	bl	8003450 <DMA_Init>
 8001ef6:	4632      	mov	r2, r6
 8001ef8:	4638      	mov	r0, r7
 8001efa:	2140      	movs	r1, #64	; 0x40
 8001efc:	f7ff fa1e 	bl	800133c <USART_DMACmd>
 8001f00:	4631      	mov	r1, r6
 8001f02:	4650      	mov	r0, sl
 8001f04:	f001 fae2 	bl	80034cc <DMA_Cmd>
 8001f08:	4b0d      	ldr	r3, [pc, #52]	; (8001f40 <waijung_usart2_initial.part.3+0x140>)
 8001f0a:	480e      	ldr	r0, [pc, #56]	; (8001f44 <waijung_usart2_initial.part.3+0x144>)
 8001f0c:	f8c4 9000 	str.w	r9, [r4]
 8001f10:	2140      	movs	r1, #64	; 0x40
 8001f12:	f44f 3200 	mov.w	r2, #131072	; 0x20000
 8001f16:	f8c4 8010 	str.w	r8, [r4, #16]
 8001f1a:	6265      	str	r5, [r4, #36]	; 0x24
 8001f1c:	60a0      	str	r0, [r4, #8]
 8001f1e:	60e1      	str	r1, [r4, #12]
 8001f20:	62a2      	str	r2, [r4, #40]	; 0x28
 8001f22:	701d      	strb	r5, [r3, #0]
 8001f24:	b007      	add	sp, #28
 8001f26:	e8bd 8ff0 	ldmia.w	sp!, {r4, r5, r6, r7, r8, r9, sl, fp, pc}
 8001f2a:	bf00      	nop
 8001f2c:	2000087c 	.word	0x2000087c
 8001f30:	40004400 	.word	0x40004400
 8001f34:	2000115c 	.word	0x2000115c
 8001f38:	40004404 	.word	0x40004404
 8001f3c:	20000f58 	.word	0x20000f58
 8001f40:	20000f44 	.word	0x20000f44
 8001f44:	20000d44 	.word	0x20000d44
 8001f48:	40020000 	.word	0x40020000
 8001f4c:	40026088 	.word	0x40026088

08001f50 <waijung_can1_initial.part.5>:
 8001f50:	e92d 43f0 	stmdb	sp!, {r4, r5, r6, r7, r8, r9, lr}
 8001f54:	4b31      	ldr	r3, [pc, #196]	; (800201c <waijung_can1_initial.part.5+0xcc>)
 8001f56:	4e32      	ldr	r6, [pc, #200]	; (8002020 <waijung_can1_initial.part.5+0xd0>)
 8001f58:	f8df 90c8 	ldr.w	r9, [pc, #200]	; 8002024 <waijung_can1_initial.part.5+0xd4>
 8001f5c:	2401      	movs	r4, #1
 8001f5e:	b087      	sub	sp, #28
 8001f60:	4621      	mov	r1, r4
 8001f62:	2008      	movs	r0, #8
 8001f64:	725c      	strb	r4, [r3, #9]
 8001f66:	af06      	add	r7, sp, #24
 8001f68:	f7fe feee 	bl	8000d48 <RCC_AHB1PeriphClockCmd>
 8001f6c:	4621      	mov	r1, r4
 8001f6e:	4630      	mov	r0, r6
 8001f70:	2209      	movs	r2, #9
 8001f72:	f001 fd4d 	bl	8003a10 <GPIO_PinAFConfig>
 8001f76:	f04f 0802 	mov.w	r8, #2
 8001f7a:	2209      	movs	r2, #9
 8001f7c:	4630      	mov	r0, r6
 8001f7e:	2100      	movs	r1, #0
 8001f80:	f001 fd46 	bl	8003a10 <GPIO_PinAFConfig>
 8001f84:	f847 8d14 	str.w	r8, [r7, #-20]!
 8001f88:	2500      	movs	r5, #0
 8001f8a:	2303      	movs	r3, #3
 8001f8c:	4630      	mov	r0, r6
 8001f8e:	4639      	mov	r1, r7
 8001f90:	f88d 3009 	strb.w	r3, [sp, #9]
 8001f94:	f88d 400b 	strb.w	r4, [sp, #11]
 8001f98:	f88d 8008 	strb.w	r8, [sp, #8]
 8001f9c:	f88d 500a 	strb.w	r5, [sp, #10]
 8001fa0:	f001 fca4 	bl	80038ec <GPIO_Init>
 8001fa4:	4639      	mov	r1, r7
 8001fa6:	4630      	mov	r0, r6
 8001fa8:	9401      	str	r4, [sp, #4]
 8001faa:	f001 fc9f 	bl	80038ec <GPIO_Init>
 8001fae:	4621      	mov	r1, r4
 8001fb0:	f04f 7000 	mov.w	r0, #33554432	; 0x2000000
 8001fb4:	f7fe fef2 	bl	8000d9c <RCC_APB1PeriphClockCmd>
 8001fb8:	2314      	movs	r3, #20
 8001fba:	4668      	mov	r0, sp
 8001fbc:	f88d 3000 	strb.w	r3, [sp]
 8001fc0:	f88d 5001 	strb.w	r5, [sp, #1]
 8001fc4:	f88d 5002 	strb.w	r5, [sp, #2]
 8001fc8:	f88d 4003 	strb.w	r4, [sp, #3]
 8001fcc:	f001 f80c 	bl	8002fe8 <NVIC_Init>
 8001fd0:	a906      	add	r1, sp, #24
 8001fd2:	2310      	movs	r3, #16
 8001fd4:	f821 3d0c 	strh.w	r3, [r1, #-12]!
 8001fd8:	220d      	movs	r2, #13
 8001fda:	2305      	movs	r3, #5
 8001fdc:	4648      	mov	r0, r9
 8001fde:	f88d 2010 	strb.w	r2, [sp, #16]
 8001fe2:	f88d 3011 	strb.w	r3, [sp, #17]
 8001fe6:	f88d 5012 	strb.w	r5, [sp, #18]
 8001fea:	f88d 4013 	strb.w	r4, [sp, #19]
 8001fee:	f88d 5014 	strb.w	r5, [sp, #20]
 8001ff2:	f88d 4015 	strb.w	r4, [sp, #21]
 8001ff6:	f88d 5016 	strb.w	r5, [sp, #22]
 8001ffa:	f88d 5017 	strb.w	r5, [sp, #23]
 8001ffe:	f88d 500e 	strb.w	r5, [sp, #14]
 8002002:	f88d 500f 	strb.w	r5, [sp, #15]
 8002006:	f7ff fa7f 	bl	8001508 <CAN_Init>
 800200a:	4622      	mov	r2, r4
 800200c:	4641      	mov	r1, r8
 800200e:	4648      	mov	r0, r9
 8002010:	f7ff fd5c 	bl	8001acc <CAN_ITConfig>
 8002014:	b007      	add	sp, #28
 8002016:	e8bd 83f0 	ldmia.w	sp!, {r4, r5, r6, r7, r8, r9, pc}
 800201a:	bf00      	nop
 800201c:	2000087c 	.word	0x2000087c
 8002020:	40020c00 	.word	0x40020c00
 8002024:	40006400 	.word	0x40006400

08002028 <CANx_Transmit>:
 8002028:	e92d 4ff8 	stmdb	sp!, {r3, r4, r5, r6, r7, r8, r9, sl, fp, lr}
 800202c:	ed2d 8b02 	vpush	{d8}
 8002030:	4681      	mov	r9, r0
 8002032:	4614      	mov	r4, r2
 8002034:	eeb0 8a40 	vmov.f32	s16, s0
 8002038:	f7ff fbc0 	bl	80017bc <CAN_Transmit>
 800203c:	4680      	mov	r8, r0
 800203e:	4601      	mov	r1, r0
 8002040:	4648      	mov	r0, r9
 8002042:	f7ff fc11 	bl	8001868 <CAN_TransmitStatus>
 8002046:	b95c      	cbnz	r4, 8002060 <CANx_Transmit+0x38>
 8002048:	1e43      	subs	r3, r0, #1
 800204a:	ecbd 8b02 	vpop	{d8}
 800204e:	b2db      	uxtb	r3, r3
 8002050:	2b03      	cmp	r3, #3
 8002052:	bf96      	itet	ls
 8002054:	4a20      	ldrls	r2, [pc, #128]	; (80020d8 <CANx_Transmit+0xb0>)
 8002056:	2001      	movhi	r0, #1
 8002058:	f852 0023 	ldrls.w	r0, [r2, r3, lsl #2]
 800205c:	e8bd 8ff8 	ldmia.w	sp!, {r3, r4, r5, r6, r7, r8, r9, sl, fp, pc}
 8002060:	eddf 7a1e 	vldr	s15, [pc, #120]	; 80020dc <CANx_Transmit+0xb4>
 8002064:	4a1e      	ldr	r2, [pc, #120]	; (80020e0 <CANx_Transmit+0xb8>)
 8002066:	f8df b080 	ldr.w	fp, [pc, #128]	; 80020e8 <CANx_Transmit+0xc0>
 800206a:	6896      	ldr	r6, [r2, #8]
 800206c:	f8db 4000 	ldr.w	r4, [fp]
 8002070:	ee28 8a27 	vmul.f32	s16, s16, s15
 8002074:	25a8      	movs	r5, #168	; 0xa8
 8002076:	eebc 8ac8 	vcvt.u32.f32	s16, s16
 800207a:	2802      	cmp	r0, #2
 800207c:	ee18 1a10 	vmov	r1, s16
 8002080:	fb05 f501 	mul.w	r5, r5, r1
 8002084:	d1e0      	bne.n	8002048 <CANx_Transmit+0x20>
 8002086:	b1dd      	cbz	r5, 80020c0 <CANx_Transmit+0x98>
 8002088:	4f16      	ldr	r7, [pc, #88]	; (80020e4 <CANx_Transmit+0xbc>)
 800208a:	4692      	mov	sl, r2
 800208c:	f8da 1008 	ldr.w	r1, [sl, #8]
 8002090:	f8db 2000 	ldr.w	r2, [fp]
 8002094:	42a2      	cmp	r2, r4
 8002096:	d00e      	beq.n	80020b6 <CANx_Transmit+0x8e>
 8002098:	42b5      	cmp	r5, r6
 800209a:	d911      	bls.n	80020c0 <CANx_Transmit+0x98>
 800209c:	3401      	adds	r4, #1
 800209e:	4633      	mov	r3, r6
 80020a0:	e003      	b.n	80020aa <CANx_Transmit+0x82>
 80020a2:	42bd      	cmp	r5, r7
 80020a4:	f104 0401 	add.w	r4, r4, #1
 80020a8:	d90a      	bls.n	80020c0 <CANx_Transmit+0x98>
 80020aa:	42a2      	cmp	r2, r4
 80020ac:	eba5 0503 	sub.w	r5, r5, r3
 80020b0:	4b0c      	ldr	r3, [pc, #48]	; (80020e4 <CANx_Transmit+0xbc>)
 80020b2:	d1f6      	bne.n	80020a2 <CANx_Transmit+0x7a>
 80020b4:	461e      	mov	r6, r3
 80020b6:	428e      	cmp	r6, r1
 80020b8:	d907      	bls.n	80020ca <CANx_Transmit+0xa2>
 80020ba:	1a71      	subs	r1, r6, r1
 80020bc:	428d      	cmp	r5, r1
 80020be:	d204      	bcs.n	80020ca <CANx_Transmit+0xa2>
 80020c0:	ecbd 8b02 	vpop	{d8}
 80020c4:	2002      	movs	r0, #2
 80020c6:	e8bd 8ff8 	ldmia.w	sp!, {r3, r4, r5, r6, r7, r8, r9, sl, fp, pc}
 80020ca:	4641      	mov	r1, r8
 80020cc:	4648      	mov	r0, r9
 80020ce:	f7ff fbcb 	bl	8001868 <CAN_TransmitStatus>
 80020d2:	2802      	cmp	r0, #2
 80020d4:	d0da      	beq.n	800208c <CANx_Transmit+0x64>
 80020d6:	e7b7      	b.n	8002048 <CANx_Transmit+0x20>
 80020d8:	0800533c 	.word	0x0800533c
 80020dc:	49742400 	.word	0x49742400
 80020e0:	e000e010 	.word	0xe000e010
 80020e4:	0019a27f 	.word	0x0019a27f
 80020e8:	20000014 	.word	0x20000014

080020ec <enable_CANTransmit>:
 80020ec:	b508      	push	{r3, lr}
 80020ee:	4b07      	ldr	r3, [pc, #28]	; (800210c <enable_CANTransmit+0x20>)
 80020f0:	7a5b      	ldrb	r3, [r3, #9]
 80020f2:	b90b      	cbnz	r3, 80020f8 <enable_CANTransmit+0xc>
 80020f4:	f7ff ff2c 	bl	8001f50 <waijung_can1_initial.part.5>
 80020f8:	4b05      	ldr	r3, [pc, #20]	; (8002110 <enable_CANTransmit+0x24>)
 80020fa:	2200      	movs	r2, #0
 80020fc:	2101      	movs	r1, #1
 80020fe:	2018      	movs	r0, #24
 8002100:	7299      	strb	r1, [r3, #10]
 8002102:	725a      	strb	r2, [r3, #9]
 8002104:	721a      	strb	r2, [r3, #8]
 8002106:	6018      	str	r0, [r3, #0]
 8002108:	605a      	str	r2, [r3, #4]
 800210a:	bd08      	pop	{r3, pc}
 800210c:	2000087c 	.word	0x2000087c
 8002110:	20001198 	.word	0x20001198

08002114 <disable_CANTransmit>:
 8002114:	4770      	bx	lr
 8002116:	bf00      	nop

08002118 <enable_CANTransmit_b>:
 8002118:	b508      	push	{r3, lr}
 800211a:	4b07      	ldr	r3, [pc, #28]	; (8002138 <enable_CANTransmit_b+0x20>)
 800211c:	7a5b      	ldrb	r3, [r3, #9]
 800211e:	b90b      	cbnz	r3, 8002124 <enable_CANTransmit_b+0xc>
 8002120:	f7ff ff16 	bl	8001f50 <waijung_can1_initial.part.5>
 8002124:	4b05      	ldr	r3, [pc, #20]	; (800213c <enable_CANTransmit_b+0x24>)
 8002126:	2200      	movs	r2, #0
 8002128:	2101      	movs	r1, #1
 800212a:	2019      	movs	r0, #25
 800212c:	7299      	strb	r1, [r3, #10]
 800212e:	725a      	strb	r2, [r3, #9]
 8002130:	721a      	strb	r2, [r3, #8]
 8002132:	6018      	str	r0, [r3, #0]
 8002134:	605a      	str	r2, [r3, #4]
 8002136:	bd08      	pop	{r3, pc}
 8002138:	2000087c 	.word	0x2000087c
 800213c:	20000b30 	.word	0x20000b30

08002140 <disable_CANTransmit_b>:
 8002140:	4770      	bx	lr
 8002142:	bf00      	nop

08002144 <UART2_RestoreBytes>:
 8002144:	f5b1 7f00 	cmp.w	r1, #512	; 0x200
 8002148:	d90b      	bls.n	8002162 <UART2_RestoreBytes+0x1e>
 800214a:	f46f 7300 	mvn.w	r3, #512	; 0x200
 800214e:	18cb      	adds	r3, r1, r3
 8002150:	f3c3 2346 	ubfx	r3, r3, #9, #7
 8002154:	ebc3 13c3 	rsb	r3, r3, r3, lsl #7
 8002158:	f5a1 7100 	sub.w	r1, r1, #512	; 0x200
 800215c:	eb01 2143 	add.w	r1, r1, r3, lsl #9
 8002160:	b289      	uxth	r1, r1
 8002162:	8803      	ldrh	r3, [r0, #0]
 8002164:	428b      	cmp	r3, r1
 8002166:	bf38      	it	cc
 8002168:	f503 7300 	addcc.w	r3, r3, #512	; 0x200
 800216c:	1a59      	subs	r1, r3, r1
 800216e:	b289      	uxth	r1, r1
 8002170:	8001      	strh	r1, [r0, #0]
 8002172:	4770      	bx	lr

08002174 <UART2_Read>:
 8002174:	4b18      	ldr	r3, [pc, #96]	; (80021d8 <UART2_Read+0x64>)
 8002176:	685b      	ldr	r3, [r3, #4]
 8002178:	b082      	sub	sp, #8
 800217a:	b29b      	uxth	r3, r3
 800217c:	f8ad 3004 	strh.w	r3, [sp, #4]
 8002180:	b303      	cbz	r3, 80021c4 <UART2_Read+0x50>
 8002182:	f8bd 3004 	ldrh.w	r3, [sp, #4]
 8002186:	8802      	ldrh	r2, [r0, #0]
 8002188:	f5c3 7300 	rsb	r3, r3, #512	; 0x200
 800218c:	b29b      	uxth	r3, r3
 800218e:	f8ad 3006 	strh.w	r3, [sp, #6]
 8002192:	f8bd 3006 	ldrh.w	r3, [sp, #6]
 8002196:	b29b      	uxth	r3, r3
 8002198:	429a      	cmp	r2, r3
 800219a:	d20e      	bcs.n	80021ba <UART2_Read+0x46>
 800219c:	f8bd 1006 	ldrh.w	r1, [sp, #6]
 80021a0:	b289      	uxth	r1, r1
 80021a2:	1a8b      	subs	r3, r1, r2
 80021a4:	f3c1 0108 	ubfx	r1, r1, #0, #9
 80021a8:	b29b      	uxth	r3, r3
 80021aa:	8001      	strh	r1, [r0, #0]
 80021ac:	b153      	cbz	r3, 80021c4 <UART2_Read+0x50>
 80021ae:	490b      	ldr	r1, [pc, #44]	; (80021dc <UART2_Read+0x68>)
 80021b0:	8043      	strh	r3, [r0, #2]
 80021b2:	440a      	add	r2, r1
 80021b4:	6042      	str	r2, [r0, #4]
 80021b6:	b002      	add	sp, #8
 80021b8:	4770      	bx	lr
 80021ba:	f8bd 3006 	ldrh.w	r3, [sp, #6]
 80021be:	b29b      	uxth	r3, r3
 80021c0:	429a      	cmp	r2, r3
 80021c2:	d803      	bhi.n	80021cc <UART2_Read+0x58>
 80021c4:	2300      	movs	r3, #0
 80021c6:	8043      	strh	r3, [r0, #2]
 80021c8:	b002      	add	sp, #8
 80021ca:	4770      	bx	lr
 80021cc:	f5c2 7300 	rsb	r3, r2, #512	; 0x200
 80021d0:	2100      	movs	r1, #0
 80021d2:	b29b      	uxth	r3, r3
 80021d4:	8001      	strh	r1, [r0, #0]
 80021d6:	e7e9      	b.n	80021ac <UART2_Read+0x38>
 80021d8:	40026088 	.word	0x40026088
 80021dc:	20000f58 	.word	0x20000f58

080021e0 <UART2_ReadEx>:
 80021e0:	e92d 4ff0 	stmdb	sp!, {r4, r5, r6, r7, r8, r9, sl, fp, lr}
 80021e4:	b085      	sub	sp, #20
 80021e6:	2600      	movs	r6, #0
 80021e8:	f8df 80d8 	ldr.w	r8, [pc, #216]	; 80022c4 <UART2_ReadEx+0xe4>
 80021ec:	f8df b0d8 	ldr.w	fp, [pc, #216]	; 80022c8 <UART2_ReadEx+0xe8>
 80021f0:	9301      	str	r3, [sp, #4]
 80021f2:	4691      	mov	r9, r2
 80021f4:	4604      	mov	r4, r0
 80021f6:	460f      	mov	r7, r1
 80021f8:	4615      	mov	r5, r2
 80021fa:	46b2      	mov	sl, r6
 80021fc:	f8d8 2004 	ldr.w	r2, [r8, #4]
 8002200:	b292      	uxth	r2, r2
 8002202:	f8ad 200c 	strh.w	r2, [sp, #12]
 8002206:	2a00      	cmp	r2, #0
 8002208:	d03e      	beq.n	8002288 <UART2_ReadEx+0xa8>
 800220a:	f8bd 200c 	ldrh.w	r2, [sp, #12]
 800220e:	8821      	ldrh	r1, [r4, #0]
 8002210:	f5c2 7200 	rsb	r2, r2, #512	; 0x200
 8002214:	b292      	uxth	r2, r2
 8002216:	f8ad 200e 	strh.w	r2, [sp, #14]
 800221a:	f8bd 200e 	ldrh.w	r2, [sp, #14]
 800221e:	b292      	uxth	r2, r2
 8002220:	4291      	cmp	r1, r2
 8002222:	d242      	bcs.n	80022aa <UART2_ReadEx+0xca>
 8002224:	f8bd 000e 	ldrh.w	r0, [sp, #14]
 8002228:	b280      	uxth	r0, r0
 800222a:	1a42      	subs	r2, r0, r1
 800222c:	f3c0 0008 	ubfx	r0, r0, #0, #9
 8002230:	b292      	uxth	r2, r2
 8002232:	8020      	strh	r0, [r4, #0]
 8002234:	b342      	cbz	r2, 8002288 <UART2_ReadEx+0xa8>
 8002236:	4459      	add	r1, fp
 8002238:	4295      	cmp	r5, r2
 800223a:	6061      	str	r1, [r4, #4]
 800223c:	8062      	strh	r2, [r4, #2]
 800223e:	d227      	bcs.n	8002290 <UART2_ReadEx+0xb0>
 8002240:	1b53      	subs	r3, r2, r5
 8002242:	b29b      	uxth	r3, r3
 8002244:	f5b3 7f00 	cmp.w	r3, #512	; 0x200
 8002248:	d90b      	bls.n	8002262 <UART2_ReadEx+0x82>
 800224a:	f46f 7200 	mvn.w	r2, #512	; 0x200
 800224e:	189a      	adds	r2, r3, r2
 8002250:	f3c2 2246 	ubfx	r2, r2, #9, #7
 8002254:	ebc2 12c2 	rsb	r2, r2, r2, lsl #7
 8002258:	f5a3 7300 	sub.w	r3, r3, #512	; 0x200
 800225c:	eb03 2342 	add.w	r3, r3, r2, lsl #9
 8002260:	b29b      	uxth	r3, r3
 8002262:	4283      	cmp	r3, r0
 8002264:	bf88      	it	hi
 8002266:	f500 7000 	addhi.w	r0, r0, #512	; 0x200
 800226a:	1ac3      	subs	r3, r0, r3
 800226c:	b29b      	uxth	r3, r3
 800226e:	462a      	mov	r2, r5
 8002270:	8023      	strh	r3, [r4, #0]
 8002272:	19b8      	adds	r0, r7, r6
 8002274:	f002 fad2 	bl	800481c <memcpy>
 8002278:	2500      	movs	r5, #0
 800227a:	9b01      	ldr	r3, [sp, #4]
 800227c:	ebc5 0509 	rsb	r5, r5, r9
 8002280:	801d      	strh	r5, [r3, #0]
 8002282:	b005      	add	sp, #20
 8002284:	e8bd 8ff0 	ldmia.w	sp!, {r4, r5, r6, r7, r8, r9, sl, fp, pc}
 8002288:	6861      	ldr	r1, [r4, #4]
 800228a:	f8a4 a002 	strh.w	sl, [r4, #2]
 800228e:	2200      	movs	r2, #0
 8002290:	19b8      	adds	r0, r7, r6
 8002292:	f002 fac3 	bl	800481c <memcpy>
 8002296:	8862      	ldrh	r2, [r4, #2]
 8002298:	1aad      	subs	r5, r5, r2
 800229a:	4416      	add	r6, r2
 800229c:	b2ad      	uxth	r5, r5
 800229e:	b2b6      	uxth	r6, r6
 80022a0:	2d00      	cmp	r5, #0
 80022a2:	d0ea      	beq.n	800227a <UART2_ReadEx+0x9a>
 80022a4:	2a00      	cmp	r2, #0
 80022a6:	d1a9      	bne.n	80021fc <UART2_ReadEx+0x1c>
 80022a8:	e7e7      	b.n	800227a <UART2_ReadEx+0x9a>
 80022aa:	f8bd 200e 	ldrh.w	r2, [sp, #14]
 80022ae:	b292      	uxth	r2, r2
 80022b0:	4291      	cmp	r1, r2
 80022b2:	d9e9      	bls.n	8002288 <UART2_ReadEx+0xa8>
 80022b4:	f5c1 7200 	rsb	r2, r1, #512	; 0x200
 80022b8:	f8a4 a000 	strh.w	sl, [r4]
 80022bc:	b292      	uxth	r2, r2
 80022be:	2000      	movs	r0, #0
 80022c0:	e7b8      	b.n	8002234 <UART2_ReadEx+0x54>
 80022c2:	bf00      	nop
 80022c4:	40026088 	.word	0x40026088
 80022c8:	20000f58 	.word	0x20000f58

080022cc <UART2_ReadLine>:
 80022cc:	e92d 4ff0 	stmdb	sp!, {r4, r5, r6, r7, r8, r9, sl, fp, lr}
 80022d0:	b083      	sub	sp, #12
 80022d2:	f8bd 4030 	ldrh.w	r4, [sp, #48]	; 0x30
 80022d6:	2a00      	cmp	r2, #0
 80022d8:	f000 809c 	beq.w	8002414 <UART2_ReadLine+0x148>
 80022dc:	469b      	mov	fp, r3
 80022de:	1e63      	subs	r3, r4, #1
 80022e0:	b29b      	uxth	r3, r3
 80022e2:	f240 1aff 	movw	sl, #511	; 0x1ff
 80022e6:	4688      	mov	r8, r1
 80022e8:	459a      	cmp	sl, r3
 80022ea:	f04f 0100 	mov.w	r1, #0
 80022ee:	f8df 91a4 	ldr.w	r9, [pc, #420]	; 8002494 <UART2_ReadLine+0x1c8>
 80022f2:	4617      	mov	r7, r2
 80022f4:	4606      	mov	r6, r0
 80022f6:	bf28      	it	cs
 80022f8:	469a      	movcs	sl, r3
 80022fa:	468c      	mov	ip, r1
 80022fc:	f8d9 3004 	ldr.w	r3, [r9, #4]
 8002300:	b29b      	uxth	r3, r3
 8002302:	f8ad 3004 	strh.w	r3, [sp, #4]
 8002306:	2b00      	cmp	r3, #0
 8002308:	f000 8088 	beq.w	800241c <UART2_ReadLine+0x150>
 800230c:	f8bd 3004 	ldrh.w	r3, [sp, #4]
 8002310:	8832      	ldrh	r2, [r6, #0]
 8002312:	f5c3 7300 	rsb	r3, r3, #512	; 0x200
 8002316:	b29b      	uxth	r3, r3
 8002318:	f8ad 3006 	strh.w	r3, [sp, #6]
 800231c:	f8bd 3006 	ldrh.w	r3, [sp, #6]
 8002320:	b29b      	uxth	r3, r3
 8002322:	429a      	cmp	r2, r3
 8002324:	f8bd 3006 	ldrh.w	r3, [sp, #6]
 8002328:	b29b      	uxth	r3, r3
 800232a:	f080 8081 	bcs.w	8002430 <UART2_ReadLine+0x164>
 800232e:	1a98      	subs	r0, r3, r2
 8002330:	f3c3 0308 	ubfx	r3, r3, #0, #9
 8002334:	b280      	uxth	r0, r0
 8002336:	8033      	strh	r3, [r6, #0]
 8002338:	2800      	cmp	r0, #0
 800233a:	d06f      	beq.n	800241c <UART2_ReadLine+0x150>
 800233c:	4b54      	ldr	r3, [pc, #336]	; (8002490 <UART2_ReadLine+0x1c4>)
 800233e:	8070      	strh	r0, [r6, #2]
 8002340:	441a      	add	r2, r3
 8002342:	6072      	str	r2, [r6, #4]
 8002344:	2300      	movs	r3, #0
 8002346:	4401      	add	r1, r0
 8002348:	461c      	mov	r4, r3
 800234a:	b289      	uxth	r1, r1
 800234c:	f8ad 3002 	strh.w	r3, [sp, #2]
 8002350:	469e      	mov	lr, r3
 8002352:	b2a3      	uxth	r3, r4
 8002354:	1c5d      	adds	r5, r3, #1
 8002356:	42a0      	cmp	r0, r4
 8002358:	b2ad      	uxth	r5, r5
 800235a:	d062      	beq.n	8002422 <UART2_ReadLine+0x156>
 800235c:	6872      	ldr	r2, [r6, #4]
 800235e:	f818 300e 	ldrb.w	r3, [r8, lr]
 8002362:	5d12      	ldrb	r2, [r2, r4]
 8002364:	f8ad 5002 	strh.w	r5, [sp, #2]
 8002368:	429a      	cmp	r2, r3
 800236a:	bf04      	itt	eq
 800236c:	f10e 0e01 	addeq.w	lr, lr, #1
 8002370:	fa1f fe8e 	uxtheq.w	lr, lr
 8002374:	45be      	cmp	lr, r7
 8002376:	f104 0401 	add.w	r4, r4, #1
 800237a:	d1ea      	bne.n	8002352 <UART2_ReadLine+0x86>
 800237c:	4465      	add	r5, ip
 800237e:	b2ad      	uxth	r5, r5
 8002380:	45aa      	cmp	sl, r5
 8002382:	d35d      	bcc.n	8002440 <UART2_ReadLine+0x174>
 8002384:	42af      	cmp	r7, r5
 8002386:	d85b      	bhi.n	8002440 <UART2_ReadLine+0x174>
 8002388:	f5b1 7f00 	cmp.w	r1, #512	; 0x200
 800238c:	d90b      	bls.n	80023a6 <UART2_ReadLine+0xda>
 800238e:	f46f 7200 	mvn.w	r2, #512	; 0x200
 8002392:	188b      	adds	r3, r1, r2
 8002394:	f3c3 2346 	ubfx	r3, r3, #9, #7
 8002398:	f5a1 7100 	sub.w	r1, r1, #512	; 0x200
 800239c:	ebc3 13c3 	rsb	r3, r3, r3, lsl #7
 80023a0:	eb01 2343 	add.w	r3, r1, r3, lsl #9
 80023a4:	b299      	uxth	r1, r3
 80023a6:	8833      	ldrh	r3, [r6, #0]
 80023a8:	428b      	cmp	r3, r1
 80023aa:	bf38      	it	cc
 80023ac:	f503 7300 	addcc.w	r3, r3, #512	; 0x200
 80023b0:	1a5b      	subs	r3, r3, r1
 80023b2:	b29b      	uxth	r3, r3
 80023b4:	8033      	strh	r3, [r6, #0]
 80023b6:	462a      	mov	r2, r5
 80023b8:	4659      	mov	r1, fp
 80023ba:	4630      	mov	r0, r6
 80023bc:	f10d 0302 	add.w	r3, sp, #2
 80023c0:	f7ff ff0e 	bl	80021e0 <UART2_ReadEx>
 80023c4:	2400      	movs	r4, #0
 80023c6:	1be8      	subs	r0, r5, r7
 80023c8:	f80b 4005 	strb.w	r4, [fp, r5]
 80023cc:	4458      	add	r0, fp
 80023ce:	463a      	mov	r2, r7
 80023d0:	4641      	mov	r1, r8
 80023d2:	f002 fb5d 	bl	8004a90 <strncmp>
 80023d6:	2800      	cmp	r0, #0
 80023d8:	d057      	beq.n	800248a <UART2_ReadLine+0x1be>
 80023da:	8870      	ldrh	r0, [r6, #2]
 80023dc:	4621      	mov	r1, r4
 80023de:	46a4      	mov	ip, r4
 80023e0:	2800      	cmp	r0, #0
 80023e2:	d18b      	bne.n	80022fc <UART2_ReadLine+0x30>
 80023e4:	b1b1      	cbz	r1, 8002414 <UART2_ReadLine+0x148>
 80023e6:	f5b1 7f00 	cmp.w	r1, #512	; 0x200
 80023ea:	d90b      	bls.n	8002404 <UART2_ReadLine+0x138>
 80023ec:	f46f 7300 	mvn.w	r3, #512	; 0x200
 80023f0:	18cb      	adds	r3, r1, r3
 80023f2:	f3c3 2346 	ubfx	r3, r3, #9, #7
 80023f6:	f5a1 7100 	sub.w	r1, r1, #512	; 0x200
 80023fa:	ebc3 13c3 	rsb	r3, r3, r3, lsl #7
 80023fe:	eb01 2343 	add.w	r3, r1, r3, lsl #9
 8002402:	b299      	uxth	r1, r3
 8002404:	8833      	ldrh	r3, [r6, #0]
 8002406:	428b      	cmp	r3, r1
 8002408:	d338      	bcc.n	800247c <UART2_ReadLine+0x1b0>
 800240a:	1a5b      	subs	r3, r3, r1
 800240c:	8033      	strh	r3, [r6, #0]
 800240e:	b003      	add	sp, #12
 8002410:	e8bd 8ff0 	ldmia.w	sp!, {r4, r5, r6, r7, r8, r9, sl, fp, pc}
 8002414:	2000      	movs	r0, #0
 8002416:	b003      	add	sp, #12
 8002418:	e8bd 8ff0 	ldmia.w	sp!, {r4, r5, r6, r7, r8, r9, sl, fp, pc}
 800241c:	2000      	movs	r0, #0
 800241e:	8070      	strh	r0, [r6, #2]
 8002420:	e790      	b.n	8002344 <UART2_ReadLine+0x78>
 8002422:	4463      	add	r3, ip
 8002424:	fa1f fc83 	uxth.w	ip, r3
 8002428:	2800      	cmp	r0, #0
 800242a:	f47f af67 	bne.w	80022fc <UART2_ReadLine+0x30>
 800242e:	e7d9      	b.n	80023e4 <UART2_ReadLine+0x118>
 8002430:	429a      	cmp	r2, r3
 8002432:	d9f3      	bls.n	800241c <UART2_ReadLine+0x150>
 8002434:	f5c2 7000 	rsb	r0, r2, #512	; 0x200
 8002438:	2300      	movs	r3, #0
 800243a:	b280      	uxth	r0, r0
 800243c:	8033      	strh	r3, [r6, #0]
 800243e:	e77b      	b.n	8002338 <UART2_ReadLine+0x6c>
 8002440:	1b49      	subs	r1, r1, r5
 8002442:	b289      	uxth	r1, r1
 8002444:	f5b1 7f00 	cmp.w	r1, #512	; 0x200
 8002448:	d90b      	bls.n	8002462 <UART2_ReadLine+0x196>
 800244a:	f46f 7400 	mvn.w	r4, #512	; 0x200
 800244e:	190b      	adds	r3, r1, r4
 8002450:	f3c3 2346 	ubfx	r3, r3, #9, #7
 8002454:	ebc3 13c3 	rsb	r3, r3, r3, lsl #7
 8002458:	f5a1 7100 	sub.w	r1, r1, #512	; 0x200
 800245c:	eb01 2143 	add.w	r1, r1, r3, lsl #9
 8002460:	b289      	uxth	r1, r1
 8002462:	8833      	ldrh	r3, [r6, #0]
 8002464:	428b      	cmp	r3, r1
 8002466:	bf38      	it	cc
 8002468:	f503 7300 	addcc.w	r3, r3, #512	; 0x200
 800246c:	1a5b      	subs	r3, r3, r1
 800246e:	2100      	movs	r1, #0
 8002470:	8033      	strh	r3, [r6, #0]
 8002472:	468c      	mov	ip, r1
 8002474:	2800      	cmp	r0, #0
 8002476:	f47f af41 	bne.w	80022fc <UART2_ReadLine+0x30>
 800247a:	e7b3      	b.n	80023e4 <UART2_ReadLine+0x118>
 800247c:	f503 7300 	add.w	r3, r3, #512	; 0x200
 8002480:	1a59      	subs	r1, r3, r1
 8002482:	8031      	strh	r1, [r6, #0]
 8002484:	b003      	add	sp, #12
 8002486:	e8bd 8ff0 	ldmia.w	sp!, {r4, r5, r6, r7, r8, r9, sl, fp, pc}
 800248a:	4628      	mov	r0, r5
 800248c:	e7c3      	b.n	8002416 <UART2_ReadLine+0x14a>
 800248e:	bf00      	nop
 8002490:	20000f58 	.word	0x20000f58
 8002494:	40026088 	.word	0x40026088

08002498 <UART2_ReadBinary>:
 8002498:	e92d 4ff0 	stmdb	sp!, {r4, r5, r6, r7, r8, r9, sl, fp, lr}
 800249c:	b087      	sub	sp, #28
 800249e:	2400      	movs	r4, #0
 80024a0:	f8bd 8048 	ldrh.w	r8, [sp, #72]	; 0x48
 80024a4:	8805      	ldrh	r5, [r0, #0]
 80024a6:	f8bd 7040 	ldrh.w	r7, [sp, #64]	; 0x40
 80024aa:	9103      	str	r1, [sp, #12]
 80024ac:	9300      	str	r3, [sp, #0]
 80024ae:	46a1      	mov	r9, r4
 80024b0:	46a2      	mov	sl, r4
 80024b2:	46a4      	mov	ip, r4
 80024b4:	46c3      	mov	fp, r8
 80024b6:	4b88      	ldr	r3, [pc, #544]	; (80026d8 <UART2_ReadBinary+0x240>)
 80024b8:	685b      	ldr	r3, [r3, #4]
 80024ba:	b29b      	uxth	r3, r3
 80024bc:	f8ad 3014 	strh.w	r3, [sp, #20]
 80024c0:	b1db      	cbz	r3, 80024fa <UART2_ReadBinary+0x62>
 80024c2:	f8bd 3014 	ldrh.w	r3, [sp, #20]
 80024c6:	f5c3 7300 	rsb	r3, r3, #512	; 0x200
 80024ca:	b29b      	uxth	r3, r3
 80024cc:	f8ad 3016 	strh.w	r3, [sp, #22]
 80024d0:	f8bd 3016 	ldrh.w	r3, [sp, #22]
 80024d4:	b29b      	uxth	r3, r3
 80024d6:	42ab      	cmp	r3, r5
 80024d8:	f240 80d0 	bls.w	800267c <UART2_ReadBinary+0x1e4>
 80024dc:	f8bd e016 	ldrh.w	lr, [sp, #22]
 80024e0:	fa1f fe8e 	uxth.w	lr, lr
 80024e4:	ebc5 010e 	rsb	r1, r5, lr
 80024e8:	f3ce 0e08 	ubfx	lr, lr, #0, #9
 80024ec:	b289      	uxth	r1, r1
 80024ee:	f8a0 e000 	strh.w	lr, [r0]
 80024f2:	b9e1      	cbnz	r1, 800252e <UART2_ReadBinary+0x96>
 80024f4:	4676      	mov	r6, lr
 80024f6:	2300      	movs	r3, #0
 80024f8:	4635      	mov	r5, r6
 80024fa:	8043      	strh	r3, [r0, #2]
 80024fc:	ebca 030c 	rsb	r3, sl, ip
 8002500:	b29b      	uxth	r3, r3
 8002502:	f5b3 7f00 	cmp.w	r3, #512	; 0x200
 8002506:	d90b      	bls.n	8002520 <UART2_ReadBinary+0x88>
 8002508:	f46f 7200 	mvn.w	r2, #512	; 0x200
 800250c:	189a      	adds	r2, r3, r2
 800250e:	f3c2 2246 	ubfx	r2, r2, #9, #7
 8002512:	ebc2 12c2 	rsb	r2, r2, r2, lsl #7
 8002516:	f5a3 7300 	sub.w	r3, r3, #512	; 0x200
 800251a:	eb03 2342 	add.w	r3, r3, r2, lsl #9
 800251e:	b29b      	uxth	r3, r3
 8002520:	42ab      	cmp	r3, r5
 8002522:	f200 80d3 	bhi.w	80026cc <UART2_ReadBinary+0x234>
 8002526:	1aed      	subs	r5, r5, r3
 8002528:	8005      	strh	r5, [r0, #0]
 800252a:	2000      	movs	r0, #0
 800252c:	e068      	b.n	8002600 <UART2_ReadBinary+0x168>
 800252e:	4b6b      	ldr	r3, [pc, #428]	; (80026dc <UART2_ReadBinary+0x244>)
 8002530:	8041      	strh	r1, [r0, #2]
 8002532:	18ee      	adds	r6, r5, r3
 8002534:	448c      	add	ip, r1
 8002536:	2500      	movs	r5, #0
 8002538:	6046      	str	r6, [r0, #4]
 800253a:	fa1f fc8c 	uxth.w	ip, ip
 800253e:	462b      	mov	r3, r5
 8002540:	f1b9 0f01 	cmp.w	r9, #1
 8002544:	d02b      	beq.n	800259e <UART2_ReadBinary+0x106>
 8002546:	d37b      	bcc.n	8002640 <UART2_ReadBinary+0x1a8>
 8002548:	f1b9 0f02 	cmp.w	r9, #2
 800254c:	d03c      	beq.n	80025c8 <UART2_ReadBinary+0x130>
 800254e:	3501      	adds	r5, #1
 8002550:	b2ab      	uxth	r3, r5
 8002552:	4299      	cmp	r1, r3
 8002554:	d8f4      	bhi.n	8002540 <UART2_ReadBinary+0xa8>
 8002556:	4675      	mov	r5, lr
 8002558:	e7ad      	b.n	80024b6 <UART2_ReadBinary+0x1e>
 800255a:	3301      	adds	r3, #1
 800255c:	f10c 0801 	add.w	r8, ip, #1
 8002560:	9001      	str	r0, [sp, #4]
 8002562:	b29b      	uxth	r3, r3
 8002564:	9702      	str	r7, [sp, #8]
 8002566:	4640      	mov	r0, r8
 8002568:	1e5d      	subs	r5, r3, #1
 800256a:	b2ad      	uxth	r5, r5
 800256c:	9f03      	ldr	r7, [sp, #12]
 800256e:	f816 9005 	ldrb.w	r9, [r6, r5]
 8002572:	f817 8004 	ldrb.w	r8, [r7, r4]
 8002576:	4405      	add	r5, r0
 8002578:	f103 0e01 	add.w	lr, r3, #1
 800257c:	45c1      	cmp	r9, r8
 800257e:	eba5 0501 	sub.w	r5, r5, r1
 8002582:	fa1f fe8e 	uxth.w	lr, lr
 8002586:	d06f      	beq.n	8002668 <UART2_ReadBinary+0x1d0>
 8002588:	428b      	cmp	r3, r1
 800258a:	fa1f fa85 	uxth.w	sl, r5
 800258e:	f080 808f 	bcs.w	80026b0 <UART2_ReadBinary+0x218>
 8002592:	2400      	movs	r4, #0
 8002594:	42a2      	cmp	r2, r4
 8002596:	d857      	bhi.n	8002648 <UART2_ReadBinary+0x1b0>
 8002598:	9801      	ldr	r0, [sp, #4]
 800259a:	9f02      	ldr	r7, [sp, #8]
 800259c:	2400      	movs	r4, #0
 800259e:	45a3      	cmp	fp, r4
 80025a0:	d911      	bls.n	80025c6 <UART2_ReadBinary+0x12e>
 80025a2:	f8dd e044 	ldr.w	lr, [sp, #68]	; 0x44
 80025a6:	5cf1      	ldrb	r1, [r6, r3]
 80025a8:	f80e 1004 	strb.w	r1, [lr, r4]
 80025ac:	3401      	adds	r4, #1
 80025ae:	b2a4      	uxth	r4, r4
 80025b0:	45a3      	cmp	fp, r4
 80025b2:	f103 0501 	add.w	r5, r3, #1
 80025b6:	d826      	bhi.n	8002606 <UART2_ReadBinary+0x16e>
 80025b8:	2f00      	cmp	r7, #0
 80025ba:	d07f      	beq.n	80026bc <UART2_ReadBinary+0x224>
 80025bc:	3301      	adds	r3, #1
 80025be:	8841      	ldrh	r1, [r0, #2]
 80025c0:	b29b      	uxth	r3, r3
 80025c2:	428b      	cmp	r3, r1
 80025c4:	d270      	bcs.n	80026a8 <UART2_ReadBinary+0x210>
 80025c6:	2400      	movs	r4, #0
 80025c8:	42bc      	cmp	r4, r7
 80025ca:	d322      	bcc.n	8002612 <UART2_ReadBinary+0x17a>
 80025cc:	3901      	subs	r1, #1
 80025ce:	1acb      	subs	r3, r1, r3
 80025d0:	b29b      	uxth	r3, r3
 80025d2:	f5b3 7f00 	cmp.w	r3, #512	; 0x200
 80025d6:	d90b      	bls.n	80025f0 <UART2_ReadBinary+0x158>
 80025d8:	f46f 7100 	mvn.w	r1, #512	; 0x200
 80025dc:	185a      	adds	r2, r3, r1
 80025de:	f3c2 2246 	ubfx	r2, r2, #9, #7
 80025e2:	ebc2 12c2 	rsb	r2, r2, r2, lsl #7
 80025e6:	f5a3 7300 	sub.w	r3, r3, #512	; 0x200
 80025ea:	eb03 2342 	add.w	r3, r3, r2, lsl #9
 80025ee:	b29b      	uxth	r3, r3
 80025f0:	8802      	ldrh	r2, [r0, #0]
 80025f2:	429a      	cmp	r2, r3
 80025f4:	bf38      	it	cc
 80025f6:	f502 7200 	addcc.w	r2, r2, #512	; 0x200
 80025fa:	1ad3      	subs	r3, r2, r3
 80025fc:	8003      	strh	r3, [r0, #0]
 80025fe:	2001      	movs	r0, #1
 8002600:	b007      	add	sp, #28
 8002602:	e8bd 8ff0 	ldmia.w	sp!, {r4, r5, r6, r7, r8, r9, sl, fp, pc}
 8002606:	8841      	ldrh	r1, [r0, #2]
 8002608:	b2ab      	uxth	r3, r5
 800260a:	4299      	cmp	r1, r3
 800260c:	d94c      	bls.n	80026a8 <UART2_ReadBinary+0x210>
 800260e:	6846      	ldr	r6, [r0, #4]
 8002610:	e7c9      	b.n	80025a6 <UART2_ReadBinary+0x10e>
 8002612:	6846      	ldr	r6, [r0, #4]
 8002614:	9d00      	ldr	r5, [sp, #0]
 8002616:	f816 e003 	ldrb.w	lr, [r6, r3]
 800261a:	5d2d      	ldrb	r5, [r5, r4]
 800261c:	45ae      	cmp	lr, r5
 800261e:	d015      	beq.n	800264c <UART2_ReadBinary+0x1b4>
 8002620:	f10c 0a01 	add.w	sl, ip, #1
 8002624:	449a      	add	sl, r3
 8002626:	ebc1 0a0a 	rsb	sl, r1, sl
 800262a:	fa1f fa8a 	uxth.w	sl, sl
 800262e:	2f00      	cmp	r7, #0
 8002630:	d0cc      	beq.n	80025cc <UART2_ReadBinary+0x134>
 8002632:	3301      	adds	r3, #1
 8002634:	8841      	ldrh	r1, [r0, #2]
 8002636:	b29b      	uxth	r3, r3
 8002638:	4299      	cmp	r1, r3
 800263a:	f04f 0400 	mov.w	r4, #0
 800263e:	d92b      	bls.n	8002698 <UART2_ReadBinary+0x200>
 8002640:	42a2      	cmp	r2, r4
 8002642:	d88a      	bhi.n	800255a <UART2_ReadBinary+0xc2>
 8002644:	2400      	movs	r4, #0
 8002646:	e7aa      	b.n	800259e <UART2_ReadBinary+0x106>
 8002648:	4673      	mov	r3, lr
 800264a:	e78d      	b.n	8002568 <UART2_ReadBinary+0xd0>
 800264c:	3401      	adds	r4, #1
 800264e:	b2a4      	uxth	r4, r4
 8002650:	42a7      	cmp	r7, r4
 8002652:	f103 0501 	add.w	r5, r3, #1
 8002656:	d9b9      	bls.n	80025cc <UART2_ReadBinary+0x134>
 8002658:	8841      	ldrh	r1, [r0, #2]
 800265a:	b2ab      	uxth	r3, r5
 800265c:	428b      	cmp	r3, r1
 800265e:	d3b3      	bcc.n	80025c8 <UART2_ReadBinary+0x130>
 8002660:	8805      	ldrh	r5, [r0, #0]
 8002662:	f04f 0902 	mov.w	r9, #2
 8002666:	e019      	b.n	800269c <UART2_ReadBinary+0x204>
 8002668:	3401      	adds	r4, #1
 800266a:	428b      	cmp	r3, r1
 800266c:	b2a4      	uxth	r4, r4
 800266e:	d391      	bcc.n	8002594 <UART2_ReadBinary+0xfc>
 8002670:	9801      	ldr	r0, [sp, #4]
 8002672:	9f02      	ldr	r7, [sp, #8]
 8002674:	8805      	ldrh	r5, [r0, #0]
 8002676:	f04f 0900 	mov.w	r9, #0
 800267a:	e00f      	b.n	800269c <UART2_ReadBinary+0x204>
 800267c:	f8bd 3016 	ldrh.w	r3, [sp, #22]
 8002680:	b29b      	uxth	r3, r3
 8002682:	42ab      	cmp	r3, r5
 8002684:	d20e      	bcs.n	80026a4 <UART2_ReadBinary+0x20c>
 8002686:	f5c5 7100 	rsb	r1, r5, #512	; 0x200
 800268a:	f04f 0300 	mov.w	r3, #0
 800268e:	8003      	strh	r3, [r0, #0]
 8002690:	b289      	uxth	r1, r1
 8002692:	f04f 0e00 	mov.w	lr, #0
 8002696:	e72c      	b.n	80024f2 <UART2_ReadBinary+0x5a>
 8002698:	8805      	ldrh	r5, [r0, #0]
 800269a:	46a1      	mov	r9, r4
 800269c:	2900      	cmp	r1, #0
 800269e:	f47f af0a 	bne.w	80024b6 <UART2_ReadBinary+0x1e>
 80026a2:	e72b      	b.n	80024fc <UART2_ReadBinary+0x64>
 80026a4:	462e      	mov	r6, r5
 80026a6:	e726      	b.n	80024f6 <UART2_ReadBinary+0x5e>
 80026a8:	8805      	ldrh	r5, [r0, #0]
 80026aa:	f04f 0901 	mov.w	r9, #1
 80026ae:	e7f5      	b.n	800269c <UART2_ReadBinary+0x204>
 80026b0:	9801      	ldr	r0, [sp, #4]
 80026b2:	9f02      	ldr	r7, [sp, #8]
 80026b4:	8805      	ldrh	r5, [r0, #0]
 80026b6:	2400      	movs	r4, #0
 80026b8:	46a1      	mov	r9, r4
 80026ba:	e7ef      	b.n	800269c <UART2_ReadBinary+0x204>
 80026bc:	8842      	ldrh	r2, [r0, #2]
 80026be:	3a01      	subs	r2, #1
 80026c0:	1ad3      	subs	r3, r2, r3
 80026c2:	b29b      	uxth	r3, r3
 80026c4:	f5b3 7f00 	cmp.w	r3, #512	; 0x200
 80026c8:	d886      	bhi.n	80025d8 <UART2_ReadBinary+0x140>
 80026ca:	e791      	b.n	80025f0 <UART2_ReadBinary+0x158>
 80026cc:	f505 7500 	add.w	r5, r5, #512	; 0x200
 80026d0:	1aeb      	subs	r3, r5, r3
 80026d2:	8003      	strh	r3, [r0, #0]
 80026d4:	2000      	movs	r0, #0
 80026d6:	e793      	b.n	8002600 <UART2_ReadBinary+0x168>
 80026d8:	40026088 	.word	0x40026088
 80026dc:	20000f58 	.word	0x20000f58

080026e0 <UART2_FlushTxBuffer>:
 80026e0:	b510      	push	{r4, lr}
 80026e2:	4c10      	ldr	r4, [pc, #64]	; (8002724 <UART2_FlushTxBuffer+0x44>)
 80026e4:	7823      	ldrb	r3, [r4, #0]
 80026e6:	b1d3      	cbz	r3, 800271e <UART2_FlushTxBuffer+0x3e>
 80026e8:	490f      	ldr	r1, [pc, #60]	; (8002728 <UART2_FlushTxBuffer+0x48>)
 80026ea:	4810      	ldr	r0, [pc, #64]	; (800272c <UART2_FlushTxBuffer+0x4c>)
 80026ec:	f000 ff3a 	bl	8003564 <DMA_GetFlagStatus>
 80026f0:	2800      	cmp	r0, #0
 80026f2:	d0f9      	beq.n	80026e8 <UART2_FlushTxBuffer+0x8>
 80026f4:	2140      	movs	r1, #64	; 0x40
 80026f6:	480e      	ldr	r0, [pc, #56]	; (8002730 <UART2_FlushTxBuffer+0x50>)
 80026f8:	f7fe fe48 	bl	800138c <USART_GetFlagStatus>
 80026fc:	2800      	cmp	r0, #0
 80026fe:	d0f3      	beq.n	80026e8 <UART2_FlushTxBuffer+0x8>
 8002700:	490c      	ldr	r1, [pc, #48]	; (8002734 <UART2_FlushTxBuffer+0x54>)
 8002702:	480a      	ldr	r0, [pc, #40]	; (800272c <UART2_FlushTxBuffer+0x4c>)
 8002704:	f000 ff4c 	bl	80035a0 <DMA_ClearFlag>
 8002708:	2100      	movs	r1, #0
 800270a:	4808      	ldr	r0, [pc, #32]	; (800272c <UART2_FlushTxBuffer+0x4c>)
 800270c:	f000 fede 	bl	80034cc <DMA_Cmd>
 8002710:	2200      	movs	r2, #0
 8002712:	2180      	movs	r1, #128	; 0x80
 8002714:	4806      	ldr	r0, [pc, #24]	; (8002730 <UART2_FlushTxBuffer+0x50>)
 8002716:	f7fe fe11 	bl	800133c <USART_DMACmd>
 800271a:	2300      	movs	r3, #0
 800271c:	7023      	strb	r3, [r4, #0]
 800271e:	2000      	movs	r0, #0
 8002720:	bd10      	pop	{r4, pc}
 8002722:	bf00      	nop
 8002724:	20000f44 	.word	0x20000f44
 8002728:	20200000 	.word	0x20200000
 800272c:	400260a0 	.word	0x400260a0
 8002730:	40004400 	.word	0x40004400
 8002734:	20300000 	.word	0x20300000

08002738 <UART2_Write>:
 8002738:	b901      	cbnz	r1, 800273c <UART2_Write+0x4>
 800273a:	4770      	bx	lr
 800273c:	b570      	push	{r4, r5, r6, lr}
 800273e:	4e1d      	ldr	r6, [pc, #116]	; (80027b4 <UART2_Write+0x7c>)
 8002740:	7833      	ldrb	r3, [r6, #0]
 8002742:	460c      	mov	r4, r1
 8002744:	4605      	mov	r5, r0
 8002746:	b1d3      	cbz	r3, 800277e <UART2_Write+0x46>
 8002748:	491b      	ldr	r1, [pc, #108]	; (80027b8 <UART2_Write+0x80>)
 800274a:	481c      	ldr	r0, [pc, #112]	; (80027bc <UART2_Write+0x84>)
 800274c:	f000 ff0a 	bl	8003564 <DMA_GetFlagStatus>
 8002750:	2800      	cmp	r0, #0
 8002752:	d0f9      	beq.n	8002748 <UART2_Write+0x10>
 8002754:	2140      	movs	r1, #64	; 0x40
 8002756:	481a      	ldr	r0, [pc, #104]	; (80027c0 <UART2_Write+0x88>)
 8002758:	f7fe fe18 	bl	800138c <USART_GetFlagStatus>
 800275c:	2800      	cmp	r0, #0
 800275e:	d0f3      	beq.n	8002748 <UART2_Write+0x10>
 8002760:	4918      	ldr	r1, [pc, #96]	; (80027c4 <UART2_Write+0x8c>)
 8002762:	4816      	ldr	r0, [pc, #88]	; (80027bc <UART2_Write+0x84>)
 8002764:	f000 ff1c 	bl	80035a0 <DMA_ClearFlag>
 8002768:	2100      	movs	r1, #0
 800276a:	4814      	ldr	r0, [pc, #80]	; (80027bc <UART2_Write+0x84>)
 800276c:	f000 feae 	bl	80034cc <DMA_Cmd>
 8002770:	2200      	movs	r2, #0
 8002772:	2180      	movs	r1, #128	; 0x80
 8002774:	4812      	ldr	r0, [pc, #72]	; (80027c0 <UART2_Write+0x88>)
 8002776:	f7fe fde1 	bl	800133c <USART_DMACmd>
 800277a:	2300      	movs	r3, #0
 800277c:	7033      	strb	r3, [r6, #0]
 800277e:	4622      	mov	r2, r4
 8002780:	4629      	mov	r1, r5
 8002782:	4811      	ldr	r0, [pc, #68]	; (80027c8 <UART2_Write+0x90>)
 8002784:	f002 f84a 	bl	800481c <memcpy>
 8002788:	4910      	ldr	r1, [pc, #64]	; (80027cc <UART2_Write+0x94>)
 800278a:	480c      	ldr	r0, [pc, #48]	; (80027bc <UART2_Write+0x84>)
 800278c:	610c      	str	r4, [r1, #16]
 800278e:	f000 fe5f 	bl	8003450 <DMA_Init>
 8002792:	2201      	movs	r2, #1
 8002794:	2180      	movs	r1, #128	; 0x80
 8002796:	480a      	ldr	r0, [pc, #40]	; (80027c0 <UART2_Write+0x88>)
 8002798:	f7fe fdd0 	bl	800133c <USART_DMACmd>
 800279c:	2140      	movs	r1, #64	; 0x40
 800279e:	4808      	ldr	r0, [pc, #32]	; (80027c0 <UART2_Write+0x88>)
 80027a0:	f7fe fdfa 	bl	8001398 <USART_ClearFlag>
 80027a4:	2101      	movs	r1, #1
 80027a6:	4805      	ldr	r0, [pc, #20]	; (80027bc <UART2_Write+0x84>)
 80027a8:	f000 fe90 	bl	80034cc <DMA_Cmd>
 80027ac:	2301      	movs	r3, #1
 80027ae:	7033      	strb	r3, [r6, #0]
 80027b0:	bd70      	pop	{r4, r5, r6, pc}
 80027b2:	bf00      	nop
 80027b4:	20000f44 	.word	0x20000f44
 80027b8:	20200000 	.word	0x20200000
 80027bc:	400260a0 	.word	0x400260a0
 80027c0:	40004400 	.word	0x40004400
 80027c4:	20300000 	.word	0x20300000
 80027c8:	20000d44 	.word	0x20000d44
 80027cc:	2000115c 	.word	0x2000115c

080027d0 <UART2_TxUpdate>:
 80027d0:	b900      	cbnz	r0, 80027d4 <UART2_TxUpdate+0x4>
 80027d2:	4770      	bx	lr
 80027d4:	b538      	push	{r3, r4, r5, lr}
 80027d6:	4d1a      	ldr	r5, [pc, #104]	; (8002840 <UART2_TxUpdate+0x70>)
 80027d8:	782b      	ldrb	r3, [r5, #0]
 80027da:	4604      	mov	r4, r0
 80027dc:	b1d3      	cbz	r3, 8002814 <UART2_TxUpdate+0x44>
 80027de:	4919      	ldr	r1, [pc, #100]	; (8002844 <UART2_TxUpdate+0x74>)
 80027e0:	4819      	ldr	r0, [pc, #100]	; (8002848 <UART2_TxUpdate+0x78>)
 80027e2:	f000 febf 	bl	8003564 <DMA_GetFlagStatus>
 80027e6:	2800      	cmp	r0, #0
 80027e8:	d0f9      	beq.n	80027de <UART2_TxUpdate+0xe>
 80027ea:	2140      	movs	r1, #64	; 0x40
 80027ec:	4817      	ldr	r0, [pc, #92]	; (800284c <UART2_TxUpdate+0x7c>)
 80027ee:	f7fe fdcd 	bl	800138c <USART_GetFlagStatus>
 80027f2:	2800      	cmp	r0, #0
 80027f4:	d0f3      	beq.n	80027de <UART2_TxUpdate+0xe>
 80027f6:	4916      	ldr	r1, [pc, #88]	; (8002850 <UART2_TxUpdate+0x80>)
 80027f8:	4813      	ldr	r0, [pc, #76]	; (8002848 <UART2_TxUpdate+0x78>)
 80027fa:	f000 fed1 	bl	80035a0 <DMA_ClearFlag>
 80027fe:	2100      	movs	r1, #0
 8002800:	4811      	ldr	r0, [pc, #68]	; (8002848 <UART2_TxUpdate+0x78>)
 8002802:	f000 fe63 	bl	80034cc <DMA_Cmd>
 8002806:	2200      	movs	r2, #0
 8002808:	2180      	movs	r1, #128	; 0x80
 800280a:	4810      	ldr	r0, [pc, #64]	; (800284c <UART2_TxUpdate+0x7c>)
 800280c:	f7fe fd96 	bl	800133c <USART_DMACmd>
 8002810:	2300      	movs	r3, #0
 8002812:	702b      	strb	r3, [r5, #0]
 8002814:	490f      	ldr	r1, [pc, #60]	; (8002854 <UART2_TxUpdate+0x84>)
 8002816:	480c      	ldr	r0, [pc, #48]	; (8002848 <UART2_TxUpdate+0x78>)
 8002818:	610c      	str	r4, [r1, #16]
 800281a:	f000 fe19 	bl	8003450 <DMA_Init>
 800281e:	2201      	movs	r2, #1
 8002820:	2180      	movs	r1, #128	; 0x80
 8002822:	480a      	ldr	r0, [pc, #40]	; (800284c <UART2_TxUpdate+0x7c>)
 8002824:	f7fe fd8a 	bl	800133c <USART_DMACmd>
 8002828:	2140      	movs	r1, #64	; 0x40
 800282a:	4808      	ldr	r0, [pc, #32]	; (800284c <UART2_TxUpdate+0x7c>)
 800282c:	f7fe fdb4 	bl	8001398 <USART_ClearFlag>
 8002830:	2101      	movs	r1, #1
 8002832:	4805      	ldr	r0, [pc, #20]	; (8002848 <UART2_TxUpdate+0x78>)
 8002834:	f000 fe4a 	bl	80034cc <DMA_Cmd>
 8002838:	2301      	movs	r3, #1
 800283a:	702b      	strb	r3, [r5, #0]
 800283c:	bd38      	pop	{r3, r4, r5, pc}
 800283e:	bf00      	nop
 8002840:	20000f44 	.word	0x20000f44
 8002844:	20200000 	.word	0x20200000
 8002848:	400260a0 	.word	0x400260a0
 800284c:	40004400 	.word	0x40004400
 8002850:	20300000 	.word	0x20300000
 8002854:	2000115c 	.word	0x2000115c

08002858 <waijung_usart2_initial>:
 8002858:	4b02      	ldr	r3, [pc, #8]	; (8002864 <waijung_usart2_initial+0xc>)
 800285a:	7a1b      	ldrb	r3, [r3, #8]
 800285c:	b103      	cbz	r3, 8002860 <waijung_usart2_initial+0x8>
 800285e:	4770      	bx	lr
 8002860:	f7ff bace 	b.w	8001e00 <waijung_usart2_initial.part.3>
 8002864:	2000087c 	.word	0x2000087c

08002868 <enable_UARTSetup>:
 8002868:	4b02      	ldr	r3, [pc, #8]	; (8002874 <enable_UARTSetup+0xc>)
 800286a:	7a1b      	ldrb	r3, [r3, #8]
 800286c:	b103      	cbz	r3, 8002870 <enable_UARTSetup+0x8>
 800286e:	4770      	bx	lr
 8002870:	f7ff bac6 	b.w	8001e00 <waijung_usart2_initial.part.3>
 8002874:	2000087c 	.word	0x2000087c

08002878 <SysTimer_Start>:
 8002878:	ee07 1a90 	vmov	s15, r1
 800287c:	ed9f 7a06 	vldr	s14, [pc, #24]	; 8002898 <SysTimer_Start+0x20>
 8002880:	4b06      	ldr	r3, [pc, #24]	; (800289c <SysTimer_Start+0x24>)
 8002882:	eef8 7a67 	vcvt.f32.u32	s15, s15
 8002886:	681b      	ldr	r3, [r3, #0]
 8002888:	6003      	str	r3, [r0, #0]
 800288a:	ee67 7a87 	vmul.f32	s15, s15, s14
 800288e:	eefc 7ae7 	vcvt.u32.f32	s15, s15
 8002892:	edc0 7a01 	vstr	s15, [r0, #4]
 8002896:	4770      	bx	lr
 8002898:	3dcccccd 	.word	0x3dcccccd
 800289c:	20000014 	.word	0x20000014

080028a0 <SysTimer_IsTimeout>:
 80028a0:	4b06      	ldr	r3, [pc, #24]	; (80028bc <SysTimer_IsTimeout+0x1c>)
 80028a2:	6802      	ldr	r2, [r0, #0]
 80028a4:	681b      	ldr	r3, [r3, #0]
 80028a6:	6840      	ldr	r0, [r0, #4]
 80028a8:	4293      	cmp	r3, r2
 80028aa:	bf38      	it	cc
 80028ac:	f103 33ff 	addcc.w	r3, r3, #4294967295
 80028b0:	1a9b      	subs	r3, r3, r2
 80028b2:	4283      	cmp	r3, r0
 80028b4:	bf34      	ite	cc
 80028b6:	2000      	movcc	r0, #0
 80028b8:	2001      	movcs	r0, #1
 80028ba:	4770      	bx	lr
 80028bc:	20000014 	.word	0x20000014

080028c0 <SysTimer_uS_Start>:
 80028c0:	4a06      	ldr	r2, [pc, #24]	; (80028dc <SysTimer_uS_Start+0x1c>)
 80028c2:	4b07      	ldr	r3, [pc, #28]	; (80028e0 <SysTimer_uS_Start+0x20>)
 80028c4:	b410      	push	{r4}
 80028c6:	6894      	ldr	r4, [r2, #8]
 80028c8:	681a      	ldr	r2, [r3, #0]
 80028ca:	6084      	str	r4, [r0, #8]
 80028cc:	23a8      	movs	r3, #168	; 0xa8
 80028ce:	fb03 f101 	mul.w	r1, r3, r1
 80028d2:	6042      	str	r2, [r0, #4]
 80028d4:	60c1      	str	r1, [r0, #12]
 80028d6:	f85d 4b04 	ldr.w	r4, [sp], #4
 80028da:	4770      	bx	lr
 80028dc:	e000e010 	.word	0xe000e010
 80028e0:	20000014 	.word	0x20000014

080028e4 <SysTimer_uS_IsTimeout>:
 80028e4:	68c3      	ldr	r3, [r0, #12]
 80028e6:	b353      	cbz	r3, 800293e <SysTimer_uS_IsTimeout+0x5a>
 80028e8:	4a17      	ldr	r2, [pc, #92]	; (8002948 <SysTimer_uS_IsTimeout+0x64>)
 80028ea:	4918      	ldr	r1, [pc, #96]	; (800294c <SysTimer_uS_IsTimeout+0x68>)
 80028ec:	b4f0      	push	{r4, r5, r6, r7}
 80028ee:	6897      	ldr	r7, [r2, #8]
 80028f0:	6842      	ldr	r2, [r0, #4]
 80028f2:	680d      	ldr	r5, [r1, #0]
 80028f4:	4295      	cmp	r5, r2
 80028f6:	d024      	beq.n	8002942 <SysTimer_uS_IsTimeout+0x5e>
 80028f8:	6881      	ldr	r1, [r0, #8]
 80028fa:	428b      	cmp	r3, r1
 80028fc:	d91a      	bls.n	8002934 <SysTimer_uS_IsTimeout+0x50>
 80028fe:	3201      	adds	r2, #1
 8002900:	4e13      	ldr	r6, [pc, #76]	; (8002950 <SysTimer_uS_IsTimeout+0x6c>)
 8002902:	e002      	b.n	800290a <SysTimer_uS_IsTimeout+0x26>
 8002904:	42b3      	cmp	r3, r6
 8002906:	d913      	bls.n	8002930 <SysTimer_uS_IsTimeout+0x4c>
 8002908:	4622      	mov	r2, r4
 800290a:	4295      	cmp	r5, r2
 800290c:	eba3 0301 	sub.w	r3, r3, r1
 8002910:	f102 0401 	add.w	r4, r2, #1
 8002914:	490e      	ldr	r1, [pc, #56]	; (8002950 <SysTimer_uS_IsTimeout+0x6c>)
 8002916:	d1f5      	bne.n	8002904 <SysTimer_uS_IsTimeout+0x20>
 8002918:	460a      	mov	r2, r1
 800291a:	60c3      	str	r3, [r0, #12]
 800291c:	6045      	str	r5, [r0, #4]
 800291e:	6081      	str	r1, [r0, #8]
 8002920:	4297      	cmp	r7, r2
 8002922:	d202      	bcs.n	800292a <SysTimer_uS_IsTimeout+0x46>
 8002924:	1bd2      	subs	r2, r2, r7
 8002926:	4293      	cmp	r3, r2
 8002928:	d304      	bcc.n	8002934 <SysTimer_uS_IsTimeout+0x50>
 800292a:	2000      	movs	r0, #0
 800292c:	bcf0      	pop	{r4, r5, r6, r7}
 800292e:	4770      	bx	lr
 8002930:	6042      	str	r2, [r0, #4]
 8002932:	6081      	str	r1, [r0, #8]
 8002934:	2300      	movs	r3, #0
 8002936:	60c3      	str	r3, [r0, #12]
 8002938:	bcf0      	pop	{r4, r5, r6, r7}
 800293a:	2001      	movs	r0, #1
 800293c:	4770      	bx	lr
 800293e:	2001      	movs	r0, #1
 8002940:	4770      	bx	lr
 8002942:	6882      	ldr	r2, [r0, #8]
 8002944:	e7ec      	b.n	8002920 <SysTimer_uS_IsTimeout+0x3c>
 8002946:	bf00      	nop
 8002948:	e000e010 	.word	0xe000e010
 800294c:	20000014 	.word	0x20000014
 8002950:	0019a27f 	.word	0x0019a27f

08002954 <SysTimer_delay_us>:
 8002954:	b5f0      	push	{r4, r5, r6, r7, lr}
 8002956:	4f13      	ldr	r7, [pc, #76]	; (80029a4 <SysTimer_delay_us+0x50>)
 8002958:	f8df e050 	ldr.w	lr, [pc, #80]	; 80029ac <SysTimer_delay_us+0x58>
 800295c:	68b9      	ldr	r1, [r7, #8]
 800295e:	4d12      	ldr	r5, [pc, #72]	; (80029a8 <SysTimer_delay_us+0x54>)
 8002960:	f8de 2000 	ldr.w	r2, [lr]
 8002964:	23a8      	movs	r3, #168	; 0xa8
 8002966:	fb03 f000 	mul.w	r0, r3, r0
 800296a:	b1c0      	cbz	r0, 800299e <SysTimer_delay_us+0x4a>
 800296c:	68be      	ldr	r6, [r7, #8]
 800296e:	f8de 4000 	ldr.w	r4, [lr]
 8002972:	4294      	cmp	r4, r2
 8002974:	d00e      	beq.n	8002994 <SysTimer_delay_us+0x40>
 8002976:	4288      	cmp	r0, r1
 8002978:	d913      	bls.n	80029a2 <SysTimer_delay_us+0x4e>
 800297a:	3201      	adds	r2, #1
 800297c:	460b      	mov	r3, r1
 800297e:	e003      	b.n	8002988 <SysTimer_delay_us+0x34>
 8002980:	42a8      	cmp	r0, r5
 8002982:	f102 0201 	add.w	r2, r2, #1
 8002986:	d90b      	bls.n	80029a0 <SysTimer_delay_us+0x4c>
 8002988:	42a2      	cmp	r2, r4
 800298a:	eba0 0003 	sub.w	r0, r0, r3
 800298e:	4b06      	ldr	r3, [pc, #24]	; (80029a8 <SysTimer_delay_us+0x54>)
 8002990:	d1f6      	bne.n	8002980 <SysTimer_delay_us+0x2c>
 8002992:	4619      	mov	r1, r3
 8002994:	42b1      	cmp	r1, r6
 8002996:	d9e8      	bls.n	800296a <SysTimer_delay_us+0x16>
 8002998:	1b8e      	subs	r6, r1, r6
 800299a:	42b0      	cmp	r0, r6
 800299c:	d2e5      	bcs.n	800296a <SysTimer_delay_us+0x16>
 800299e:	bdf0      	pop	{r4, r5, r6, r7, pc}
 80029a0:	bdf0      	pop	{r4, r5, r6, r7, pc}
 80029a2:	bdf0      	pop	{r4, r5, r6, r7, pc}
 80029a4:	e000e010 	.word	0xe000e010
 80029a8:	0019a27f 	.word	0x0019a27f
 80029ac:	20000014 	.word	0x20000014

080029b0 <SysTimer_delay_ms>:
 80029b0:	ee07 0a90 	vmov	s15, r0
 80029b4:	ed9f 7a0e 	vldr	s14, [pc, #56]	; 80029f0 <SysTimer_delay_ms+0x40>
 80029b8:	eef8 7a67 	vcvt.f32.u32	s15, s15
 80029bc:	b430      	push	{r4, r5}
 80029be:	ee67 7a87 	vmul.f32	s15, s15, s14
 80029c2:	4d0c      	ldr	r5, [pc, #48]	; (80029f4 <SysTimer_delay_ms+0x44>)
 80029c4:	eefc 7ae7 	vcvt.u32.f32	s15, s15
 80029c8:	6829      	ldr	r1, [r5, #0]
 80029ca:	ee17 4a90 	vmov	r4, s15
 80029ce:	682b      	ldr	r3, [r5, #0]
 80029d0:	1e5a      	subs	r2, r3, #1
 80029d2:	428b      	cmp	r3, r1
 80029d4:	eba3 0001 	sub.w	r0, r3, r1
 80029d8:	eba2 0201 	sub.w	r2, r2, r1
 80029dc:	d303      	bcc.n	80029e6 <SysTimer_delay_ms+0x36>
 80029de:	4284      	cmp	r4, r0
 80029e0:	d8f5      	bhi.n	80029ce <SysTimer_delay_ms+0x1e>
 80029e2:	bc30      	pop	{r4, r5}
 80029e4:	4770      	bx	lr
 80029e6:	4294      	cmp	r4, r2
 80029e8:	d8f1      	bhi.n	80029ce <SysTimer_delay_ms+0x1e>
 80029ea:	bc30      	pop	{r4, r5}
 80029ec:	4770      	bx	lr
 80029ee:	bf00      	nop
 80029f0:	3dcccccd 	.word	0x3dcccccd
 80029f4:	20000014 	.word	0x20000014

080029f8 <enable_DigitalInput>:
 80029f8:	b500      	push	{lr}
 80029fa:	2101      	movs	r1, #1
 80029fc:	b083      	sub	sp, #12
 80029fe:	2004      	movs	r0, #4
 8002a00:	f7fe f9a2 	bl	8000d48 <RCC_AHB1PeriphClockCmd>
 8002a04:	2203      	movs	r2, #3
 8002a06:	2300      	movs	r3, #0
 8002a08:	4669      	mov	r1, sp
 8002a0a:	4806      	ldr	r0, [pc, #24]	; (8002a24 <enable_DigitalInput+0x2c>)
 8002a0c:	9200      	str	r2, [sp, #0]
 8002a0e:	f88d 2005 	strb.w	r2, [sp, #5]
 8002a12:	f88d 3004 	strb.w	r3, [sp, #4]
 8002a16:	f88d 3007 	strb.w	r3, [sp, #7]
 8002a1a:	f000 ff67 	bl	80038ec <GPIO_Init>
 8002a1e:	b003      	add	sp, #12
 8002a20:	f85d fb04 	ldr.w	pc, [sp], #4
 8002a24:	40020800 	.word	0x40020800

08002a28 <CAN1_Filter_Hook>:
 8002a28:	4b25      	ldr	r3, [pc, #148]	; (8002ac0 <CAN1_Filter_Hook+0x98>)
 8002a2a:	68da      	ldr	r2, [r3, #12]
 8002a2c:	b1ea      	cbz	r2, 8002a6a <CAN1_Filter_Hook+0x42>
 8002a2e:	691a      	ldr	r2, [r3, #16]
 8002a30:	b30a      	cbz	r2, 8002a76 <CAN1_Filter_Hook+0x4e>
 8002a32:	695a      	ldr	r2, [r3, #20]
 8002a34:	b312      	cbz	r2, 8002a7c <CAN1_Filter_Hook+0x54>
 8002a36:	699a      	ldr	r2, [r3, #24]
 8002a38:	b31a      	cbz	r2, 8002a82 <CAN1_Filter_Hook+0x5a>
 8002a3a:	69da      	ldr	r2, [r3, #28]
 8002a3c:	b322      	cbz	r2, 8002a88 <CAN1_Filter_Hook+0x60>
 8002a3e:	6a1a      	ldr	r2, [r3, #32]
 8002a40:	b32a      	cbz	r2, 8002a8e <CAN1_Filter_Hook+0x66>
 8002a42:	6a5a      	ldr	r2, [r3, #36]	; 0x24
 8002a44:	b332      	cbz	r2, 8002a94 <CAN1_Filter_Hook+0x6c>
 8002a46:	6a9a      	ldr	r2, [r3, #40]	; 0x28
 8002a48:	b33a      	cbz	r2, 8002a9a <CAN1_Filter_Hook+0x72>
 8002a4a:	6ada      	ldr	r2, [r3, #44]	; 0x2c
 8002a4c:	b342      	cbz	r2, 8002aa0 <CAN1_Filter_Hook+0x78>
 8002a4e:	6b1a      	ldr	r2, [r3, #48]	; 0x30
 8002a50:	b34a      	cbz	r2, 8002aa6 <CAN1_Filter_Hook+0x7e>
 8002a52:	6b59      	ldr	r1, [r3, #52]	; 0x34
 8002a54:	b351      	cbz	r1, 8002aac <CAN1_Filter_Hook+0x84>
 8002a56:	6b99      	ldr	r1, [r3, #56]	; 0x38
 8002a58:	b359      	cbz	r1, 8002ab2 <CAN1_Filter_Hook+0x8a>
 8002a5a:	6bd9      	ldr	r1, [r3, #60]	; 0x3c
 8002a5c:	b121      	cbz	r1, 8002a68 <CAN1_Filter_Hook+0x40>
 8002a5e:	6c1a      	ldr	r2, [r3, #64]	; 0x40
 8002a60:	b352      	cbz	r2, 8002ab8 <CAN1_Filter_Hook+0x90>
 8002a62:	22ff      	movs	r2, #255	; 0xff
 8002a64:	4610      	mov	r0, r2
 8002a66:	4770      	bx	lr
 8002a68:	220c      	movs	r2, #12
 8002a6a:	4611      	mov	r1, r2
 8002a6c:	eb03 0381 	add.w	r3, r3, r1, lsl #2
 8002a70:	60d8      	str	r0, [r3, #12]
 8002a72:	4610      	mov	r0, r2
 8002a74:	4770      	bx	lr
 8002a76:	2201      	movs	r2, #1
 8002a78:	4611      	mov	r1, r2
 8002a7a:	e7f7      	b.n	8002a6c <CAN1_Filter_Hook+0x44>
 8002a7c:	2202      	movs	r2, #2
 8002a7e:	4611      	mov	r1, r2
 8002a80:	e7f4      	b.n	8002a6c <CAN1_Filter_Hook+0x44>
 8002a82:	2203      	movs	r2, #3
 8002a84:	4611      	mov	r1, r2
 8002a86:	e7f1      	b.n	8002a6c <CAN1_Filter_Hook+0x44>
 8002a88:	2204      	movs	r2, #4
 8002a8a:	4611      	mov	r1, r2
 8002a8c:	e7ee      	b.n	8002a6c <CAN1_Filter_Hook+0x44>
 8002a8e:	2205      	movs	r2, #5
 8002a90:	4611      	mov	r1, r2
 8002a92:	e7eb      	b.n	8002a6c <CAN1_Filter_Hook+0x44>
 8002a94:	2206      	movs	r2, #6
 8002a96:	4611      	mov	r1, r2
 8002a98:	e7e8      	b.n	8002a6c <CAN1_Filter_Hook+0x44>
 8002a9a:	2207      	movs	r2, #7
 8002a9c:	4611      	mov	r1, r2
 8002a9e:	e7e5      	b.n	8002a6c <CAN1_Filter_Hook+0x44>
 8002aa0:	2208      	movs	r2, #8
 8002aa2:	4611      	mov	r1, r2
 8002aa4:	e7e2      	b.n	8002a6c <CAN1_Filter_Hook+0x44>
 8002aa6:	2209      	movs	r2, #9
 8002aa8:	4611      	mov	r1, r2
 8002aaa:	e7df      	b.n	8002a6c <CAN1_Filter_Hook+0x44>
 8002aac:	220a      	movs	r2, #10
 8002aae:	4611      	mov	r1, r2
 8002ab0:	e7dc      	b.n	8002a6c <CAN1_Filter_Hook+0x44>
 8002ab2:	220b      	movs	r2, #11
 8002ab4:	4611      	mov	r1, r2
 8002ab6:	e7d9      	b.n	8002a6c <CAN1_Filter_Hook+0x44>
 8002ab8:	220d      	movs	r2, #13
 8002aba:	4611      	mov	r1, r2
 8002abc:	e7d6      	b.n	8002a6c <CAN1_Filter_Hook+0x44>
 8002abe:	bf00      	nop
 8002ac0:	2000087c 	.word	0x2000087c

08002ac4 <CAN1_Filter_Free>:
 8002ac4:	280d      	cmp	r0, #13
 8002ac6:	d804      	bhi.n	8002ad2 <CAN1_Filter_Free+0xe>
 8002ac8:	4b02      	ldr	r3, [pc, #8]	; (8002ad4 <CAN1_Filter_Free+0x10>)
 8002aca:	eb03 0080 	add.w	r0, r3, r0, lsl #2
 8002ace:	2300      	movs	r3, #0
 8002ad0:	60c3      	str	r3, [r0, #12]
 8002ad2:	4770      	bx	lr
 8002ad4:	2000087c 	.word	0x2000087c

08002ad8 <CAN1_RX0_IRQHandler>:
 8002ad8:	b510      	push	{r4, lr}
 8002ada:	4c0c      	ldr	r4, [pc, #48]	; (8002b0c <CAN1_RX0_IRQHandler+0x34>)
 8002adc:	480c      	ldr	r0, [pc, #48]	; (8002b10 <CAN1_RX0_IRQHandler+0x38>)
 8002ade:	2100      	movs	r1, #0
 8002ae0:	f7fe ff5c 	bl	800199c <CAN_MessagePending>
 8002ae4:	4a0b      	ldr	r2, [pc, #44]	; (8002b14 <CAN1_RX0_IRQHandler+0x3c>)
 8002ae6:	2100      	movs	r1, #0
 8002ae8:	b170      	cbz	r0, 8002b08 <CAN1_RX0_IRQHandler+0x30>
 8002aea:	4809      	ldr	r0, [pc, #36]	; (8002b10 <CAN1_RX0_IRQHandler+0x38>)
 8002aec:	f7fe fefa 	bl	80018e4 <CAN_Receive>
 8002af0:	f894 3057 	ldrb.w	r3, [r4, #87]	; 0x57
 8002af4:	2b0d      	cmp	r3, #13
 8002af6:	eb04 0283 	add.w	r2, r4, r3, lsl #2
 8002afa:	d8ef      	bhi.n	8002adc <CAN1_RX0_IRQHandler+0x4>
 8002afc:	68d3      	ldr	r3, [r2, #12]
 8002afe:	4805      	ldr	r0, [pc, #20]	; (8002b14 <CAN1_RX0_IRQHandler+0x3c>)
 8002b00:	2b00      	cmp	r3, #0
 8002b02:	d0eb      	beq.n	8002adc <CAN1_RX0_IRQHandler+0x4>
 8002b04:	4798      	blx	r3
 8002b06:	e7e9      	b.n	8002adc <CAN1_RX0_IRQHandler+0x4>
 8002b08:	bd10      	pop	{r4, pc}
 8002b0a:	bf00      	nop
 8002b0c:	2000087c 	.word	0x2000087c
 8002b10:	40006400 	.word	0x40006400
 8002b14:	200008c0 	.word	0x200008c0

08002b18 <CANReceive_Msg_Buffer_Count>:
 8002b18:	4a11      	ldr	r2, [pc, #68]	; (8002b60 <CANReceive_Msg_Buffer_Count+0x48>)
 8002b1a:	8853      	ldrh	r3, [r2, #2]
 8002b1c:	b082      	sub	sp, #8
 8002b1e:	b29b      	uxth	r3, r3
 8002b20:	f8ad 3004 	strh.w	r3, [sp, #4]
 8002b24:	8813      	ldrh	r3, [r2, #0]
 8002b26:	b29b      	uxth	r3, r3
 8002b28:	f8ad 3006 	strh.w	r3, [sp, #6]
 8002b2c:	f8bd 2006 	ldrh.w	r2, [sp, #6]
 8002b30:	f8bd 3004 	ldrh.w	r3, [sp, #4]
 8002b34:	b292      	uxth	r2, r2
 8002b36:	b29b      	uxth	r3, r3
 8002b38:	429a      	cmp	r2, r3
 8002b3a:	d209      	bcs.n	8002b50 <CANReceive_Msg_Buffer_Count+0x38>
 8002b3c:	f8bd 0006 	ldrh.w	r0, [sp, #6]
 8002b40:	f8bd 3004 	ldrh.w	r3, [sp, #4]
 8002b44:	b280      	uxth	r0, r0
 8002b46:	3008      	adds	r0, #8
 8002b48:	1ac0      	subs	r0, r0, r3
 8002b4a:	b280      	uxth	r0, r0
 8002b4c:	b002      	add	sp, #8
 8002b4e:	4770      	bx	lr
 8002b50:	f8bd 3006 	ldrh.w	r3, [sp, #6]
 8002b54:	f8bd 0004 	ldrh.w	r0, [sp, #4]
 8002b58:	1a18      	subs	r0, r3, r0
 8002b5a:	b280      	uxth	r0, r0
 8002b5c:	b002      	add	sp, #8
 8002b5e:	4770      	bx	lr
 8002b60:	2000087c 	.word	0x2000087c

08002b64 <CANReceive_GetMsg>:
 8002b64:	b4f0      	push	{r4, r5, r6, r7}
 8002b66:	4606      	mov	r6, r0
 8002b68:	b082      	sub	sp, #8
 8002b6a:	b672      	cpsid	i
 8002b6c:	4d1d      	ldr	r5, [pc, #116]	; (8002be4 <CANReceive_GetMsg+0x80>)
 8002b6e:	886b      	ldrh	r3, [r5, #2]
 8002b70:	b29b      	uxth	r3, r3
 8002b72:	f8ad 3004 	strh.w	r3, [sp, #4]
 8002b76:	882b      	ldrh	r3, [r5, #0]
 8002b78:	b29b      	uxth	r3, r3
 8002b7a:	f8ad 3006 	strh.w	r3, [sp, #6]
 8002b7e:	f8bd 2006 	ldrh.w	r2, [sp, #6]
 8002b82:	f8bd 3004 	ldrh.w	r3, [sp, #4]
 8002b86:	b292      	uxth	r2, r2
 8002b88:	b29b      	uxth	r3, r3
 8002b8a:	429a      	cmp	r2, r3
 8002b8c:	d321      	bcc.n	8002bd2 <CANReceive_GetMsg+0x6e>
 8002b8e:	f8bd 3006 	ldrh.w	r3, [sp, #6]
 8002b92:	f8bd 4004 	ldrh.w	r4, [sp, #4]
 8002b96:	1b1c      	subs	r4, r3, r4
 8002b98:	b2a4      	uxth	r4, r4
 8002b9a:	b1ac      	cbz	r4, 8002bc8 <CANReceive_GetMsg+0x64>
 8002b9c:	886f      	ldrh	r7, [r5, #2]
 8002b9e:	4b12      	ldr	r3, [pc, #72]	; (8002be8 <CANReceive_GetMsg+0x84>)
 8002ba0:	b2bf      	uxth	r7, r7
 8002ba2:	eb07 0787 	add.w	r7, r7, r7, lsl #2
 8002ba6:	eb03 0787 	add.w	r7, r3, r7, lsl #2
 8002baa:	cf0f      	ldmia	r7!, {r0, r1, r2, r3}
 8002bac:	6030      	str	r0, [r6, #0]
 8002bae:	8868      	ldrh	r0, [r5, #2]
 8002bb0:	6071      	str	r1, [r6, #4]
 8002bb2:	3001      	adds	r0, #1
 8002bb4:	b280      	uxth	r0, r0
 8002bb6:	8068      	strh	r0, [r5, #2]
 8002bb8:	8869      	ldrh	r1, [r5, #2]
 8002bba:	60b2      	str	r2, [r6, #8]
 8002bbc:	60f3      	str	r3, [r6, #12]
 8002bbe:	6838      	ldr	r0, [r7, #0]
 8002bc0:	6130      	str	r0, [r6, #16]
 8002bc2:	f001 0107 	and.w	r1, r1, #7
 8002bc6:	8069      	strh	r1, [r5, #2]
 8002bc8:	b662      	cpsie	i
 8002bca:	4620      	mov	r0, r4
 8002bcc:	b002      	add	sp, #8
 8002bce:	bcf0      	pop	{r4, r5, r6, r7}
 8002bd0:	4770      	bx	lr
 8002bd2:	f8bd 4006 	ldrh.w	r4, [sp, #6]
 8002bd6:	f8bd 3004 	ldrh.w	r3, [sp, #4]
 8002bda:	b2a4      	uxth	r4, r4
 8002bdc:	3408      	adds	r4, #8
 8002bde:	1ae4      	subs	r4, r4, r3
 8002be0:	b2a4      	uxth	r4, r4
 8002be2:	e7da      	b.n	8002b9a <CANReceive_GetMsg+0x36>
 8002be4:	2000087c 	.word	0x2000087c
 8002be8:	200009b4 	.word	0x200009b4

08002bec <enable_CANReceive>:
 8002bec:	b5f8      	push	{r3, r4, r5, r6, r7, lr}
 8002bee:	4c41      	ldr	r4, [pc, #260]	; (8002cf4 <enable_CANReceive+0x108>)
 8002bf0:	7a63      	ldrb	r3, [r4, #9]
 8002bf2:	2b00      	cmp	r3, #0
 8002bf4:	d036      	beq.n	8002c64 <enable_CANReceive+0x78>
 8002bf6:	2101      	movs	r1, #1
 8002bf8:	f04f 7000 	mov.w	r0, #33554432	; 0x2000000
 8002bfc:	f7fe f8ce 	bl	8000d9c <RCC_APB1PeriphClockCmd>
 8002c00:	68e2      	ldr	r2, [r4, #12]
 8002c02:	4b3c      	ldr	r3, [pc, #240]	; (8002cf4 <enable_CANReceive+0x108>)
 8002c04:	2a00      	cmp	r2, #0
 8002c06:	d031      	beq.n	8002c6c <enable_CANReceive+0x80>
 8002c08:	691a      	ldr	r2, [r3, #16]
 8002c0a:	2a00      	cmp	r2, #0
 8002c0c:	d04e      	beq.n	8002cac <enable_CANReceive+0xc0>
 8002c0e:	695a      	ldr	r2, [r3, #20]
 8002c10:	2a00      	cmp	r2, #0
 8002c12:	d04e      	beq.n	8002cb2 <enable_CANReceive+0xc6>
 8002c14:	699a      	ldr	r2, [r3, #24]
 8002c16:	2a00      	cmp	r2, #0
 8002c18:	d04e      	beq.n	8002cb8 <enable_CANReceive+0xcc>
 8002c1a:	69da      	ldr	r2, [r3, #28]
 8002c1c:	2a00      	cmp	r2, #0
 8002c1e:	d04e      	beq.n	8002cbe <enable_CANReceive+0xd2>
 8002c20:	6a1a      	ldr	r2, [r3, #32]
 8002c22:	2a00      	cmp	r2, #0
 8002c24:	d04e      	beq.n	8002cc4 <enable_CANReceive+0xd8>
 8002c26:	6a5a      	ldr	r2, [r3, #36]	; 0x24
 8002c28:	2a00      	cmp	r2, #0
 8002c2a:	d04e      	beq.n	8002cca <enable_CANReceive+0xde>
 8002c2c:	6a9a      	ldr	r2, [r3, #40]	; 0x28
 8002c2e:	2a00      	cmp	r2, #0
 8002c30:	d04e      	beq.n	8002cd0 <enable_CANReceive+0xe4>
 8002c32:	6ada      	ldr	r2, [r3, #44]	; 0x2c
 8002c34:	2a00      	cmp	r2, #0
 8002c36:	d04e      	beq.n	8002cd6 <enable_CANReceive+0xea>
 8002c38:	6b1b      	ldr	r3, [r3, #48]	; 0x30
 8002c3a:	2b00      	cmp	r3, #0
 8002c3c:	d04e      	beq.n	8002cdc <enable_CANReceive+0xf0>
 8002c3e:	6b62      	ldr	r2, [r4, #52]	; 0x34
 8002c40:	4b2c      	ldr	r3, [pc, #176]	; (8002cf4 <enable_CANReceive+0x108>)
 8002c42:	2a00      	cmp	r2, #0
 8002c44:	d04d      	beq.n	8002ce2 <enable_CANReceive+0xf6>
 8002c46:	6b9a      	ldr	r2, [r3, #56]	; 0x38
 8002c48:	2a00      	cmp	r2, #0
 8002c4a:	d04d      	beq.n	8002ce8 <enable_CANReceive+0xfc>
 8002c4c:	6bda      	ldr	r2, [r3, #60]	; 0x3c
 8002c4e:	b162      	cbz	r2, 8002c6a <enable_CANReceive+0x7e>
 8002c50:	6c1b      	ldr	r3, [r3, #64]	; 0x40
 8002c52:	2b00      	cmp	r3, #0
 8002c54:	d04b      	beq.n	8002cee <enable_CANReceive+0x102>
 8002c56:	4b28      	ldr	r3, [pc, #160]	; (8002cf8 <enable_CANReceive+0x10c>)
 8002c58:	22ff      	movs	r2, #255	; 0xff
 8002c5a:	701a      	strb	r2, [r3, #0]
 8002c5c:	2300      	movs	r3, #0
 8002c5e:	8063      	strh	r3, [r4, #2]
 8002c60:	8023      	strh	r3, [r4, #0]
 8002c62:	bdf8      	pop	{r3, r4, r5, r6, r7, pc}
 8002c64:	f7ff f974 	bl	8001f50 <waijung_can1_initial.part.5>
 8002c68:	e7c5      	b.n	8002bf6 <enable_CANReceive+0xa>
 8002c6a:	220c      	movs	r2, #12
 8002c6c:	4611      	mov	r1, r2
 8002c6e:	4b23      	ldr	r3, [pc, #140]	; (8002cfc <enable_CANReceive+0x110>)
 8002c70:	4823      	ldr	r0, [pc, #140]	; (8002d00 <enable_CANReceive+0x114>)
 8002c72:	4e21      	ldr	r6, [pc, #132]	; (8002cf8 <enable_CANReceive+0x10c>)
 8002c74:	729a      	strb	r2, [r3, #10]
 8002c76:	eb04 0181 	add.w	r1, r4, r1, lsl #2
 8002c7a:	f64f 75e0 	movw	r5, #65504	; 0xffe0
 8002c7e:	60c8      	str	r0, [r1, #12]
 8002c80:	809d      	strh	r5, [r3, #4]
 8002c82:	2100      	movs	r1, #0
 8002c84:	f44f 7e10 	mov.w	lr, #576	; 0x240
 8002c88:	4618      	mov	r0, r3
 8002c8a:	2501      	movs	r5, #1
 8002c8c:	2704      	movs	r7, #4
 8002c8e:	f8a3 e000 	strh.w	lr, [r3]
 8002c92:	80df      	strh	r7, [r3, #6]
 8002c94:	72d9      	strb	r1, [r3, #11]
 8002c96:	8059      	strh	r1, [r3, #2]
 8002c98:	8119      	strh	r1, [r3, #8]
 8002c9a:	731d      	strb	r5, [r3, #12]
 8002c9c:	735d      	strb	r5, [r3, #13]
 8002c9e:	7032      	strb	r2, [r6, #0]
 8002ca0:	f7fe fca8 	bl	80015f4 <CAN_FilterInit>
 8002ca4:	2300      	movs	r3, #0
 8002ca6:	8063      	strh	r3, [r4, #2]
 8002ca8:	8023      	strh	r3, [r4, #0]
 8002caa:	bdf8      	pop	{r3, r4, r5, r6, r7, pc}
 8002cac:	2201      	movs	r2, #1
 8002cae:	4611      	mov	r1, r2
 8002cb0:	e7dd      	b.n	8002c6e <enable_CANReceive+0x82>
 8002cb2:	2202      	movs	r2, #2
 8002cb4:	4611      	mov	r1, r2
 8002cb6:	e7da      	b.n	8002c6e <enable_CANReceive+0x82>
 8002cb8:	2203      	movs	r2, #3
 8002cba:	4611      	mov	r1, r2
 8002cbc:	e7d7      	b.n	8002c6e <enable_CANReceive+0x82>
 8002cbe:	2204      	movs	r2, #4
 8002cc0:	4611      	mov	r1, r2
 8002cc2:	e7d4      	b.n	8002c6e <enable_CANReceive+0x82>
 8002cc4:	2205      	movs	r2, #5
 8002cc6:	4611      	mov	r1, r2
 8002cc8:	e7d1      	b.n	8002c6e <enable_CANReceive+0x82>
 8002cca:	2206      	movs	r2, #6
 8002ccc:	4611      	mov	r1, r2
 8002cce:	e7ce      	b.n	8002c6e <enable_CANReceive+0x82>
 8002cd0:	2207      	movs	r2, #7
 8002cd2:	4611      	mov	r1, r2
 8002cd4:	e7cb      	b.n	8002c6e <enable_CANReceive+0x82>
 8002cd6:	2208      	movs	r2, #8
 8002cd8:	4611      	mov	r1, r2
 8002cda:	e7c8      	b.n	8002c6e <enable_CANReceive+0x82>
 8002cdc:	2209      	movs	r2, #9
 8002cde:	4611      	mov	r1, r2
 8002ce0:	e7c5      	b.n	8002c6e <enable_CANReceive+0x82>
 8002ce2:	220a      	movs	r2, #10
 8002ce4:	4611      	mov	r1, r2
 8002ce6:	e7c2      	b.n	8002c6e <enable_CANReceive+0x82>
 8002ce8:	220b      	movs	r2, #11
 8002cea:	4611      	mov	r1, r2
 8002cec:	e7bf      	b.n	8002c6e <enable_CANReceive+0x82>
 8002cee:	220d      	movs	r2, #13
 8002cf0:	4611      	mov	r1, r2
 8002cf2:	e7bc      	b.n	8002c6e <enable_CANReceive+0x82>
 8002cf4:	2000087c 	.word	0x2000087c
 8002cf8:	20001158 	.word	0x20001158
 8002cfc:	20000f48 	.word	0x20000f48
 8002d00:	08001d41 	.word	0x08001d41

08002d04 <disable_CANReceive>:
 8002d04:	4b09      	ldr	r3, [pc, #36]	; (8002d2c <disable_CANReceive+0x28>)
 8002d06:	b510      	push	{r4, lr}
 8002d08:	4618      	mov	r0, r3
 8002d0a:	2400      	movs	r4, #0
 8002d0c:	735c      	strb	r4, [r3, #13]
 8002d0e:	f7fe fc71 	bl	80015f4 <CAN_FilterInit>
 8002d12:	4b07      	ldr	r3, [pc, #28]	; (8002d30 <disable_CANReceive+0x2c>)
 8002d14:	4a07      	ldr	r2, [pc, #28]	; (8002d34 <disable_CANReceive+0x30>)
 8002d16:	781b      	ldrb	r3, [r3, #0]
 8002d18:	2b0d      	cmp	r3, #13
 8002d1a:	bf9c      	itt	ls
 8002d1c:	eb02 0383 	addls.w	r3, r2, r3, lsl #2
 8002d20:	60dc      	strls	r4, [r3, #12]
 8002d22:	2300      	movs	r3, #0
 8002d24:	8053      	strh	r3, [r2, #2]
 8002d26:	8013      	strh	r3, [r2, #0]
 8002d28:	bd10      	pop	{r4, pc}
 8002d2a:	bf00      	nop
 8002d2c:	20000f48 	.word	0x20000f48
 8002d30:	20001158 	.word	0x20001158
 8002d34:	2000087c 	.word	0x2000087c

08002d38 <CANReceive1_Msg_Buffer_Count>:
 8002d38:	4a11      	ldr	r2, [pc, #68]	; (8002d80 <CANReceive1_Msg_Buffer_Count+0x48>)
 8002d3a:	88d3      	ldrh	r3, [r2, #6]
 8002d3c:	b082      	sub	sp, #8
 8002d3e:	b29b      	uxth	r3, r3
 8002d40:	f8ad 3004 	strh.w	r3, [sp, #4]
 8002d44:	8893      	ldrh	r3, [r2, #4]
 8002d46:	b29b      	uxth	r3, r3
 8002d48:	f8ad 3006 	strh.w	r3, [sp, #6]
 8002d4c:	f8bd 2006 	ldrh.w	r2, [sp, #6]
 8002d50:	f8bd 3004 	ldrh.w	r3, [sp, #4]
 8002d54:	b292      	uxth	r2, r2
 8002d56:	b29b      	uxth	r3, r3
 8002d58:	429a      	cmp	r2, r3
 8002d5a:	d209      	bcs.n	8002d70 <CANReceive1_Msg_Buffer_Count+0x38>
 8002d5c:	f8bd 0006 	ldrh.w	r0, [sp, #6]
 8002d60:	f8bd 3004 	ldrh.w	r3, [sp, #4]
 8002d64:	b280      	uxth	r0, r0
 8002d66:	3008      	adds	r0, #8
 8002d68:	1ac0      	subs	r0, r0, r3
 8002d6a:	b280      	uxth	r0, r0
 8002d6c:	b002      	add	sp, #8
 8002d6e:	4770      	bx	lr
 8002d70:	f8bd 3006 	ldrh.w	r3, [sp, #6]
 8002d74:	f8bd 0004 	ldrh.w	r0, [sp, #4]
 8002d78:	1a18      	subs	r0, r3, r0
 8002d7a:	b280      	uxth	r0, r0
 8002d7c:	b002      	add	sp, #8
 8002d7e:	4770      	bx	lr
 8002d80:	2000087c 	.word	0x2000087c

08002d84 <CANReceive1_GetMsg>:
 8002d84:	b4f0      	push	{r4, r5, r6, r7}
 8002d86:	4606      	mov	r6, r0
 8002d88:	b082      	sub	sp, #8
 8002d8a:	b672      	cpsid	i
 8002d8c:	4d1d      	ldr	r5, [pc, #116]	; (8002e04 <CANReceive1_GetMsg+0x80>)
 8002d8e:	88eb      	ldrh	r3, [r5, #6]
 8002d90:	b29b      	uxth	r3, r3
 8002d92:	f8ad 3004 	strh.w	r3, [sp, #4]
 8002d96:	88ab      	ldrh	r3, [r5, #4]
 8002d98:	b29b      	uxth	r3, r3
 8002d9a:	f8ad 3006 	strh.w	r3, [sp, #6]
 8002d9e:	f8bd 2006 	ldrh.w	r2, [sp, #6]
 8002da2:	f8bd 3004 	ldrh.w	r3, [sp, #4]
 8002da6:	b292      	uxth	r2, r2
 8002da8:	b29b      	uxth	r3, r3
 8002daa:	429a      	cmp	r2, r3
 8002dac:	d321      	bcc.n	8002df2 <CANReceive1_GetMsg+0x6e>
 8002dae:	f8bd 3006 	ldrh.w	r3, [sp, #6]
 8002db2:	f8bd 4004 	ldrh.w	r4, [sp, #4]
 8002db6:	1b1c      	subs	r4, r3, r4
 8002db8:	b2a4      	uxth	r4, r4
 8002dba:	b1ac      	cbz	r4, 8002de8 <CANReceive1_GetMsg+0x64>
 8002dbc:	88ef      	ldrh	r7, [r5, #6]
 8002dbe:	4b12      	ldr	r3, [pc, #72]	; (8002e08 <CANReceive1_GetMsg+0x84>)
 8002dc0:	b2bf      	uxth	r7, r7
 8002dc2:	eb07 0787 	add.w	r7, r7, r7, lsl #2
 8002dc6:	eb03 0787 	add.w	r7, r3, r7, lsl #2
 8002dca:	cf0f      	ldmia	r7!, {r0, r1, r2, r3}
 8002dcc:	6030      	str	r0, [r6, #0]
 8002dce:	88e8      	ldrh	r0, [r5, #6]
 8002dd0:	6071      	str	r1, [r6, #4]
 8002dd2:	3001      	adds	r0, #1
 8002dd4:	b280      	uxth	r0, r0
 8002dd6:	80e8      	strh	r0, [r5, #6]
 8002dd8:	88e9      	ldrh	r1, [r5, #6]
 8002dda:	60b2      	str	r2, [r6, #8]
 8002ddc:	60f3      	str	r3, [r6, #12]
 8002dde:	6838      	ldr	r0, [r7, #0]
 8002de0:	6130      	str	r0, [r6, #16]
 8002de2:	f001 0107 	and.w	r1, r1, #7
 8002de6:	80e9      	strh	r1, [r5, #6]
 8002de8:	b662      	cpsie	i
 8002dea:	4620      	mov	r0, r4
 8002dec:	b002      	add	sp, #8
 8002dee:	bcf0      	pop	{r4, r5, r6, r7}
 8002df0:	4770      	bx	lr
 8002df2:	f8bd 4006 	ldrh.w	r4, [sp, #6]
 8002df6:	f8bd 3004 	ldrh.w	r3, [sp, #4]
 8002dfa:	b2a4      	uxth	r4, r4
 8002dfc:	3408      	adds	r4, #8
 8002dfe:	1ae4      	subs	r4, r4, r3
 8002e00:	b2a4      	uxth	r4, r4
 8002e02:	e7da      	b.n	8002dba <CANReceive1_GetMsg+0x36>
 8002e04:	2000087c 	.word	0x2000087c
 8002e08:	20000a6c 	.word	0x20000a6c

08002e0c <enable_CANReceive1>:
 8002e0c:	b5f8      	push	{r3, r4, r5, r6, r7, lr}
 8002e0e:	4c41      	ldr	r4, [pc, #260]	; (8002f14 <enable_CANReceive1+0x108>)
 8002e10:	7a63      	ldrb	r3, [r4, #9]
 8002e12:	2b00      	cmp	r3, #0
 8002e14:	d036      	beq.n	8002e84 <enable_CANReceive1+0x78>
 8002e16:	2101      	movs	r1, #1
 8002e18:	f04f 7000 	mov.w	r0, #33554432	; 0x2000000
 8002e1c:	f7fd ffbe 	bl	8000d9c <RCC_APB1PeriphClockCmd>
 8002e20:	68e2      	ldr	r2, [r4, #12]
 8002e22:	4b3c      	ldr	r3, [pc, #240]	; (8002f14 <enable_CANReceive1+0x108>)
 8002e24:	2a00      	cmp	r2, #0
 8002e26:	d031      	beq.n	8002e8c <enable_CANReceive1+0x80>
 8002e28:	691a      	ldr	r2, [r3, #16]
 8002e2a:	2a00      	cmp	r2, #0
 8002e2c:	d04e      	beq.n	8002ecc <enable_CANReceive1+0xc0>
 8002e2e:	695a      	ldr	r2, [r3, #20]
 8002e30:	2a00      	cmp	r2, #0
 8002e32:	d04e      	beq.n	8002ed2 <enable_CANReceive1+0xc6>
 8002e34:	699a      	ldr	r2, [r3, #24]
 8002e36:	2a00      	cmp	r2, #0
 8002e38:	d04e      	beq.n	8002ed8 <enable_CANReceive1+0xcc>
 8002e3a:	69da      	ldr	r2, [r3, #28]
 8002e3c:	2a00      	cmp	r2, #0
 8002e3e:	d04e      	beq.n	8002ede <enable_CANReceive1+0xd2>
 8002e40:	6a1a      	ldr	r2, [r3, #32]
 8002e42:	2a00      	cmp	r2, #0
 8002e44:	d04e      	beq.n	8002ee4 <enable_CANReceive1+0xd8>
 8002e46:	6a5a      	ldr	r2, [r3, #36]	; 0x24
 8002e48:	2a00      	cmp	r2, #0
 8002e4a:	d04e      	beq.n	8002eea <enable_CANReceive1+0xde>
 8002e4c:	6a9a      	ldr	r2, [r3, #40]	; 0x28
 8002e4e:	2a00      	cmp	r2, #0
 8002e50:	d04e      	beq.n	8002ef0 <enable_CANReceive1+0xe4>
 8002e52:	6ada      	ldr	r2, [r3, #44]	; 0x2c
 8002e54:	2a00      	cmp	r2, #0
 8002e56:	d04e      	beq.n	8002ef6 <enable_CANReceive1+0xea>
 8002e58:	6b1b      	ldr	r3, [r3, #48]	; 0x30
 8002e5a:	2b00      	cmp	r3, #0
 8002e5c:	d04e      	beq.n	8002efc <enable_CANReceive1+0xf0>
 8002e5e:	6b62      	ldr	r2, [r4, #52]	; 0x34
 8002e60:	4b2c      	ldr	r3, [pc, #176]	; (8002f14 <enable_CANReceive1+0x108>)
 8002e62:	2a00      	cmp	r2, #0
 8002e64:	d04d      	beq.n	8002f02 <enable_CANReceive1+0xf6>
 8002e66:	6b9a      	ldr	r2, [r3, #56]	; 0x38
 8002e68:	2a00      	cmp	r2, #0
 8002e6a:	d04d      	beq.n	8002f08 <enable_CANReceive1+0xfc>
 8002e6c:	6bda      	ldr	r2, [r3, #60]	; 0x3c
 8002e6e:	b162      	cbz	r2, 8002e8a <enable_CANReceive1+0x7e>
 8002e70:	6c1b      	ldr	r3, [r3, #64]	; 0x40
 8002e72:	2b00      	cmp	r3, #0
 8002e74:	d04b      	beq.n	8002f0e <enable_CANReceive1+0x102>
 8002e76:	4b28      	ldr	r3, [pc, #160]	; (8002f18 <enable_CANReceive1+0x10c>)
 8002e78:	22ff      	movs	r2, #255	; 0xff
 8002e7a:	701a      	strb	r2, [r3, #0]
 8002e7c:	2300      	movs	r3, #0
 8002e7e:	80e3      	strh	r3, [r4, #6]
 8002e80:	80a3      	strh	r3, [r4, #4]
 8002e82:	bdf8      	pop	{r3, r4, r5, r6, r7, pc}
 8002e84:	f7ff f864 	bl	8001f50 <waijung_can1_initial.part.5>
 8002e88:	e7c5      	b.n	8002e16 <enable_CANReceive1+0xa>
 8002e8a:	220c      	movs	r2, #12
 8002e8c:	4611      	mov	r1, r2
 8002e8e:	4b23      	ldr	r3, [pc, #140]	; (8002f1c <enable_CANReceive1+0x110>)
 8002e90:	4823      	ldr	r0, [pc, #140]	; (8002f20 <enable_CANReceive1+0x114>)
 8002e92:	4e21      	ldr	r6, [pc, #132]	; (8002f18 <enable_CANReceive1+0x10c>)
 8002e94:	729a      	strb	r2, [r3, #10]
 8002e96:	eb04 0181 	add.w	r1, r4, r1, lsl #2
 8002e9a:	f64f 75e0 	movw	r5, #65504	; 0xffe0
 8002e9e:	60c8      	str	r0, [r1, #12]
 8002ea0:	809d      	strh	r5, [r3, #4]
 8002ea2:	2100      	movs	r1, #0
 8002ea4:	f44f 7ec0 	mov.w	lr, #384	; 0x180
 8002ea8:	4618      	mov	r0, r3
 8002eaa:	2501      	movs	r5, #1
 8002eac:	2704      	movs	r7, #4
 8002eae:	f8a3 e000 	strh.w	lr, [r3]
 8002eb2:	80df      	strh	r7, [r3, #6]
 8002eb4:	72d9      	strb	r1, [r3, #11]
 8002eb6:	8059      	strh	r1, [r3, #2]
 8002eb8:	8119      	strh	r1, [r3, #8]
 8002eba:	731d      	strb	r5, [r3, #12]
 8002ebc:	735d      	strb	r5, [r3, #13]
 8002ebe:	7032      	strb	r2, [r6, #0]
 8002ec0:	f7fe fb98 	bl	80015f4 <CAN_FilterInit>
 8002ec4:	2300      	movs	r3, #0
 8002ec6:	80e3      	strh	r3, [r4, #6]
 8002ec8:	80a3      	strh	r3, [r4, #4]
 8002eca:	bdf8      	pop	{r3, r4, r5, r6, r7, pc}
 8002ecc:	2201      	movs	r2, #1
 8002ece:	4611      	mov	r1, r2
 8002ed0:	e7dd      	b.n	8002e8e <enable_CANReceive1+0x82>
 8002ed2:	2202      	movs	r2, #2
 8002ed4:	4611      	mov	r1, r2
 8002ed6:	e7da      	b.n	8002e8e <enable_CANReceive1+0x82>
 8002ed8:	2203      	movs	r2, #3
 8002eda:	4611      	mov	r1, r2
 8002edc:	e7d7      	b.n	8002e8e <enable_CANReceive1+0x82>
 8002ede:	2204      	movs	r2, #4
 8002ee0:	4611      	mov	r1, r2
 8002ee2:	e7d4      	b.n	8002e8e <enable_CANReceive1+0x82>
 8002ee4:	2205      	movs	r2, #5
 8002ee6:	4611      	mov	r1, r2
 8002ee8:	e7d1      	b.n	8002e8e <enable_CANReceive1+0x82>
 8002eea:	2206      	movs	r2, #6
 8002eec:	4611      	mov	r1, r2
 8002eee:	e7ce      	b.n	8002e8e <enable_CANReceive1+0x82>
 8002ef0:	2207      	movs	r2, #7
 8002ef2:	4611      	mov	r1, r2
 8002ef4:	e7cb      	b.n	8002e8e <enable_CANReceive1+0x82>
 8002ef6:	2208      	movs	r2, #8
 8002ef8:	4611      	mov	r1, r2
 8002efa:	e7c8      	b.n	8002e8e <enable_CANReceive1+0x82>
 8002efc:	2209      	movs	r2, #9
 8002efe:	4611      	mov	r1, r2
 8002f00:	e7c5      	b.n	8002e8e <enable_CANReceive1+0x82>
 8002f02:	220a      	movs	r2, #10
 8002f04:	4611      	mov	r1, r2
 8002f06:	e7c2      	b.n	8002e8e <enable_CANReceive1+0x82>
 8002f08:	220b      	movs	r2, #11
 8002f0a:	4611      	mov	r1, r2
 8002f0c:	e7bf      	b.n	8002e8e <enable_CANReceive1+0x82>
 8002f0e:	220d      	movs	r2, #13
 8002f10:	4611      	mov	r1, r2
 8002f12:	e7bc      	b.n	8002e8e <enable_CANReceive1+0x82>
 8002f14:	2000087c 	.word	0x2000087c
 8002f18:	200009ac 	.word	0x200009ac
 8002f1c:	20000b0c 	.word	0x20000b0c
 8002f20:	08001da1 	.word	0x08001da1

08002f24 <disable_CANReceive1>:
 8002f24:	4b09      	ldr	r3, [pc, #36]	; (8002f4c <disable_CANReceive1+0x28>)
 8002f26:	b510      	push	{r4, lr}
 8002f28:	4618      	mov	r0, r3
 8002f2a:	2400      	movs	r4, #0
 8002f2c:	735c      	strb	r4, [r3, #13]
 8002f2e:	f7fe fb61 	bl	80015f4 <CAN_FilterInit>
 8002f32:	4b07      	ldr	r3, [pc, #28]	; (8002f50 <disable_CANReceive1+0x2c>)
 8002f34:	4a07      	ldr	r2, [pc, #28]	; (8002f54 <disable_CANReceive1+0x30>)
 8002f36:	781b      	ldrb	r3, [r3, #0]
 8002f38:	2b0d      	cmp	r3, #13
 8002f3a:	bf9c      	itt	ls
 8002f3c:	eb02 0383 	addls.w	r3, r2, r3, lsl #2
 8002f40:	60dc      	strls	r4, [r3, #12]
 8002f42:	2300      	movs	r3, #0
 8002f44:	80d3      	strh	r3, [r2, #6]
 8002f46:	8093      	strh	r3, [r2, #4]
 8002f48:	bd10      	pop	{r4, pc}
 8002f4a:	bf00      	nop
 8002f4c:	20000b0c 	.word	0x20000b0c
 8002f50:	200009ac 	.word	0x200009ac
 8002f54:	2000087c 	.word	0x2000087c

08002f58 <enable_DigitalOutput>:
 8002f58:	b530      	push	{r4, r5, lr}
 8002f5a:	2101      	movs	r1, #1
 8002f5c:	b083      	sub	sp, #12
 8002f5e:	2004      	movs	r0, #4
 8002f60:	f7fd fef2 	bl	8000d48 <RCC_AHB1PeriphClockCmd>
 8002f64:	250c      	movs	r5, #12
 8002f66:	2300      	movs	r3, #0
 8002f68:	2203      	movs	r2, #3
 8002f6a:	2401      	movs	r4, #1
 8002f6c:	4669      	mov	r1, sp
 8002f6e:	4807      	ldr	r0, [pc, #28]	; (8002f8c <enable_DigitalOutput+0x34>)
 8002f70:	9500      	str	r5, [sp, #0]
 8002f72:	f88d 4004 	strb.w	r4, [sp, #4]
 8002f76:	f88d 3006 	strb.w	r3, [sp, #6]
 8002f7a:	f88d 3007 	strb.w	r3, [sp, #7]
 8002f7e:	f88d 2005 	strb.w	r2, [sp, #5]
 8002f82:	f000 fcb3 	bl	80038ec <GPIO_Init>
 8002f86:	b003      	add	sp, #12
 8002f88:	bd30      	pop	{r4, r5, pc}
 8002f8a:	bf00      	nop
 8002f8c:	40020800 	.word	0x40020800

08002f90 <waijung_can1_initial>:
 8002f90:	4b02      	ldr	r3, [pc, #8]	; (8002f9c <waijung_can1_initial+0xc>)
 8002f92:	7a5b      	ldrb	r3, [r3, #9]
 8002f94:	b103      	cbz	r3, 8002f98 <waijung_can1_initial+0x8>
 8002f96:	4770      	bx	lr
 8002f98:	f7fe bfda 	b.w	8001f50 <waijung_can1_initial.part.5>
 8002f9c:	2000087c 	.word	0x2000087c

08002fa0 <enable_CANSetup>:
 8002fa0:	4b02      	ldr	r3, [pc, #8]	; (8002fac <enable_CANSetup+0xc>)
 8002fa2:	7a5b      	ldrb	r3, [r3, #9]
 8002fa4:	b103      	cbz	r3, 8002fa8 <enable_CANSetup+0x8>
 8002fa6:	4770      	bx	lr
 8002fa8:	f7fe bfd2 	b.w	8001f50 <waijung_can1_initial.part.5>
 8002fac:	2000087c 	.word	0x2000087c

08002fb0 <disable_CANSetup>:
 8002fb0:	4770      	bx	lr
 8002fb2:	bf00      	nop
 8002fb4:	0000      	movs	r0, r0
	...

08002fb8 <rtGetNaN>:
 8002fb8:	ed9f 0b01 	vldr	d0, [pc, #4]	; 8002fc0 <rtGetNaN+0x8>
 8002fbc:	4770      	bx	lr
 8002fbe:	bf00      	nop
 8002fc0:	00000000 	.word	0x00000000
 8002fc4:	fff80000 	.word	0xfff80000

08002fc8 <rtGetNaNF>:
 8002fc8:	ed9f 0a01 	vldr	s0, [pc, #4]	; 8002fd0 <rtGetNaNF+0x8>
 8002fcc:	4770      	bx	lr
 8002fce:	bf00      	nop
 8002fd0:	ffc00000 	.word	0xffc00000

08002fd4 <NVIC_PriorityGroupConfig>:
 8002fd4:	f040 60bf 	orr.w	r0, r0, #100139008	; 0x5f80000
 8002fd8:	4b02      	ldr	r3, [pc, #8]	; (8002fe4 <NVIC_PriorityGroupConfig+0x10>)
 8002fda:	f440 3000 	orr.w	r0, r0, #131072	; 0x20000
 8002fde:	60d8      	str	r0, [r3, #12]
 8002fe0:	4770      	bx	lr
 8002fe2:	bf00      	nop
 8002fe4:	e000ed00 	.word	0xe000ed00

08002fe8 <NVIC_Init>:
 8002fe8:	78c3      	ldrb	r3, [r0, #3]
 8002fea:	b95b      	cbnz	r3, 8003004 <NVIC_Init+0x1c>
 8002fec:	7803      	ldrb	r3, [r0, #0]
 8002fee:	4818      	ldr	r0, [pc, #96]	; (8003050 <NVIC_Init+0x68>)
 8002ff0:	095a      	lsrs	r2, r3, #5
 8002ff2:	3220      	adds	r2, #32
 8002ff4:	f003 031f 	and.w	r3, r3, #31
 8002ff8:	2101      	movs	r1, #1
 8002ffa:	fa01 f303 	lsl.w	r3, r1, r3
 8002ffe:	f840 3022 	str.w	r3, [r0, r2, lsl #2]
 8003002:	4770      	bx	lr
 8003004:	4b13      	ldr	r3, [pc, #76]	; (8003054 <NVIC_Init+0x6c>)
 8003006:	b4f0      	push	{r4, r5, r6, r7}
 8003008:	68d9      	ldr	r1, [r3, #12]
 800300a:	7847      	ldrb	r7, [r0, #1]
 800300c:	7882      	ldrb	r2, [r0, #2]
 800300e:	7804      	ldrb	r4, [r0, #0]
 8003010:	4e0f      	ldr	r6, [pc, #60]	; (8003050 <NVIC_Init+0x68>)
 8003012:	43c9      	mvns	r1, r1
 8003014:	f3c1 2102 	ubfx	r1, r1, #8, #3
 8003018:	f1c1 0504 	rsb	r5, r1, #4
 800301c:	b2ed      	uxtb	r5, r5
 800301e:	230f      	movs	r3, #15
 8003020:	fa07 f505 	lsl.w	r5, r7, r5
 8003024:	410b      	asrs	r3, r1
 8003026:	b2ed      	uxtb	r5, r5
 8003028:	4013      	ands	r3, r2
 800302a:	432b      	orrs	r3, r5
 800302c:	f104 4260 	add.w	r2, r4, #3758096384	; 0xe0000000
 8003030:	f502 4261 	add.w	r2, r2, #57600	; 0xe100
 8003034:	011b      	lsls	r3, r3, #4
 8003036:	b2db      	uxtb	r3, r3
 8003038:	f882 3300 	strb.w	r3, [r2, #768]	; 0x300
 800303c:	7803      	ldrb	r3, [r0, #0]
 800303e:	2201      	movs	r2, #1
 8003040:	f003 011f 	and.w	r1, r3, #31
 8003044:	095b      	lsrs	r3, r3, #5
 8003046:	408a      	lsls	r2, r1
 8003048:	f846 2023 	str.w	r2, [r6, r3, lsl #2]
 800304c:	bcf0      	pop	{r4, r5, r6, r7}
 800304e:	4770      	bx	lr
 8003050:	e000e100 	.word	0xe000e100
 8003054:	e000ed00 	.word	0xe000ed00

08003058 <NVIC_SetVectorTable>:
 8003058:	f021 4160 	bic.w	r1, r1, #3758096384	; 0xe0000000
 800305c:	f021 017f 	bic.w	r1, r1, #127	; 0x7f
 8003060:	4b01      	ldr	r3, [pc, #4]	; (8003068 <NVIC_SetVectorTable+0x10>)
 8003062:	4308      	orrs	r0, r1
 8003064:	6098      	str	r0, [r3, #8]
 8003066:	4770      	bx	lr
 8003068:	e000ed00 	.word	0xe000ed00

0800306c <NVIC_SystemLPConfig>:
 800306c:	4a04      	ldr	r2, [pc, #16]	; (8003080 <NVIC_SystemLPConfig+0x14>)
 800306e:	6913      	ldr	r3, [r2, #16]
 8003070:	b919      	cbnz	r1, 800307a <NVIC_SystemLPConfig+0xe>
 8003072:	ea23 0000 	bic.w	r0, r3, r0
 8003076:	6110      	str	r0, [r2, #16]
 8003078:	4770      	bx	lr
 800307a:	4318      	orrs	r0, r3
 800307c:	6110      	str	r0, [r2, #16]
 800307e:	4770      	bx	lr
 8003080:	e000ed00 	.word	0xe000ed00

08003084 <SysTick_CLKSourceConfig>:
 8003084:	4a04      	ldr	r2, [pc, #16]	; (8003098 <SysTick_CLKSourceConfig+0x14>)
 8003086:	6813      	ldr	r3, [r2, #0]
 8003088:	2804      	cmp	r0, #4
 800308a:	bf0c      	ite	eq
 800308c:	f043 0304 	orreq.w	r3, r3, #4
 8003090:	f023 0304 	bicne.w	r3, r3, #4
 8003094:	6013      	str	r3, [r2, #0]
 8003096:	4770      	bx	lr
 8003098:	e000e010 	.word	0xe000e010

0800309c <NMI_Handler>:
 800309c:	4770      	bx	lr
 800309e:	bf00      	nop

080030a0 <MemManage_Handler>:
 80030a0:	e7fe      	b.n	80030a0 <MemManage_Handler>
 80030a2:	bf00      	nop

080030a4 <BusFault_Handler>:
 80030a4:	b508      	push	{r3, lr}
 80030a6:	2101      	movs	r1, #1
 80030a8:	f44f 6000 	mov.w	r0, #2048	; 0x800
 80030ac:	f7fd fe76 	bl	8000d9c <RCC_APB1PeriphClockCmd>
 80030b0:	4b01      	ldr	r3, [pc, #4]	; (80030b8 <BusFault_Handler+0x14>)
 80030b2:	2280      	movs	r2, #128	; 0x80
 80030b4:	601a      	str	r2, [r3, #0]
 80030b6:	e7fe      	b.n	80030b6 <BusFault_Handler+0x12>
 80030b8:	40002c00 	.word	0x40002c00

080030bc <HardFault_Handler>:
 80030bc:	b508      	push	{r3, lr}
 80030be:	f7ff fff1 	bl	80030a4 <BusFault_Handler>
 80030c2:	bf00      	nop

080030c4 <UsageFault_Handler>:
 80030c4:	e7fe      	b.n	80030c4 <UsageFault_Handler>
 80030c6:	bf00      	nop

080030c8 <SVC_Handler>:
 80030c8:	4770      	bx	lr
 80030ca:	bf00      	nop

080030cc <DebugMon_Handler>:
 80030cc:	4770      	bx	lr
 80030ce:	bf00      	nop

080030d0 <PendSV_Handler>:
 80030d0:	4770      	bx	lr
 80030d2:	bf00      	nop

080030d4 <SystemInit>:
 80030d4:	4939      	ldr	r1, [pc, #228]	; (80031bc <SystemInit+0xe8>)
 80030d6:	4b3a      	ldr	r3, [pc, #232]	; (80031c0 <SystemInit+0xec>)
 80030d8:	f8d1 2088 	ldr.w	r2, [r1, #136]	; 0x88
 80030dc:	4839      	ldr	r0, [pc, #228]	; (80031c4 <SystemInit+0xf0>)
 80030de:	f442 0270 	orr.w	r2, r2, #15728640	; 0xf00000
 80030e2:	f8c1 2088 	str.w	r2, [r1, #136]	; 0x88
 80030e6:	681a      	ldr	r2, [r3, #0]
 80030e8:	2100      	movs	r1, #0
 80030ea:	f042 0201 	orr.w	r2, r2, #1
 80030ee:	601a      	str	r2, [r3, #0]
 80030f0:	6099      	str	r1, [r3, #8]
 80030f2:	681a      	ldr	r2, [r3, #0]
 80030f4:	f022 7284 	bic.w	r2, r2, #17301504	; 0x1080000
 80030f8:	f422 3280 	bic.w	r2, r2, #65536	; 0x10000
 80030fc:	601a      	str	r2, [r3, #0]
 80030fe:	6058      	str	r0, [r3, #4]
 8003100:	681a      	ldr	r2, [r3, #0]
 8003102:	b082      	sub	sp, #8
 8003104:	f422 2280 	bic.w	r2, r2, #262144	; 0x40000
 8003108:	601a      	str	r2, [r3, #0]
 800310a:	60d9      	str	r1, [r3, #12]
 800310c:	9100      	str	r1, [sp, #0]
 800310e:	9101      	str	r1, [sp, #4]
 8003110:	681a      	ldr	r2, [r3, #0]
 8003112:	f442 3280 	orr.w	r2, r2, #65536	; 0x10000
 8003116:	601a      	str	r2, [r3, #0]
 8003118:	461a      	mov	r2, r3
 800311a:	e003      	b.n	8003124 <SystemInit+0x50>
 800311c:	9b00      	ldr	r3, [sp, #0]
 800311e:	f5b3 4fa0 	cmp.w	r3, #20480	; 0x5000
 8003122:	d009      	beq.n	8003138 <SystemInit+0x64>
 8003124:	6813      	ldr	r3, [r2, #0]
 8003126:	f403 3300 	and.w	r3, r3, #131072	; 0x20000
 800312a:	9301      	str	r3, [sp, #4]
 800312c:	9b00      	ldr	r3, [sp, #0]
 800312e:	3301      	adds	r3, #1
 8003130:	9300      	str	r3, [sp, #0]
 8003132:	9b01      	ldr	r3, [sp, #4]
 8003134:	2b00      	cmp	r3, #0
 8003136:	d0f1      	beq.n	800311c <SystemInit+0x48>
 8003138:	4b21      	ldr	r3, [pc, #132]	; (80031c0 <SystemInit+0xec>)
 800313a:	681b      	ldr	r3, [r3, #0]
 800313c:	f413 3300 	ands.w	r3, r3, #131072	; 0x20000
 8003140:	bf18      	it	ne
 8003142:	2301      	movne	r3, #1
 8003144:	9301      	str	r3, [sp, #4]
 8003146:	9b01      	ldr	r3, [sp, #4]
 8003148:	2b01      	cmp	r3, #1
 800314a:	d005      	beq.n	8003158 <SystemInit+0x84>
 800314c:	4b1b      	ldr	r3, [pc, #108]	; (80031bc <SystemInit+0xe8>)
 800314e:	f04f 6200 	mov.w	r2, #134217728	; 0x8000000
 8003152:	609a      	str	r2, [r3, #8]
 8003154:	b002      	add	sp, #8
 8003156:	4770      	bx	lr
 8003158:	4b19      	ldr	r3, [pc, #100]	; (80031c0 <SystemInit+0xec>)
 800315a:	491b      	ldr	r1, [pc, #108]	; (80031c8 <SystemInit+0xf4>)
 800315c:	6c1a      	ldr	r2, [r3, #64]	; 0x40
 800315e:	481b      	ldr	r0, [pc, #108]	; (80031cc <SystemInit+0xf8>)
 8003160:	f042 5280 	orr.w	r2, r2, #268435456	; 0x10000000
 8003164:	641a      	str	r2, [r3, #64]	; 0x40
 8003166:	680a      	ldr	r2, [r1, #0]
 8003168:	f442 4240 	orr.w	r2, r2, #49152	; 0xc000
 800316c:	600a      	str	r2, [r1, #0]
 800316e:	689a      	ldr	r2, [r3, #8]
 8003170:	609a      	str	r2, [r3, #8]
 8003172:	689a      	ldr	r2, [r3, #8]
 8003174:	f442 4200 	orr.w	r2, r2, #32768	; 0x8000
 8003178:	609a      	str	r2, [r3, #8]
 800317a:	689a      	ldr	r2, [r3, #8]
 800317c:	f442 52a0 	orr.w	r2, r2, #5120	; 0x1400
 8003180:	609a      	str	r2, [r3, #8]
 8003182:	6058      	str	r0, [r3, #4]
 8003184:	681a      	ldr	r2, [r3, #0]
 8003186:	f042 7280 	orr.w	r2, r2, #16777216	; 0x1000000
 800318a:	601a      	str	r2, [r3, #0]
 800318c:	461a      	mov	r2, r3
 800318e:	6811      	ldr	r1, [r2, #0]
 8003190:	4b0b      	ldr	r3, [pc, #44]	; (80031c0 <SystemInit+0xec>)
 8003192:	0189      	lsls	r1, r1, #6
 8003194:	d5fb      	bpl.n	800318e <SystemInit+0xba>
 8003196:	4a0e      	ldr	r2, [pc, #56]	; (80031d0 <SystemInit+0xfc>)
 8003198:	f240 7105 	movw	r1, #1797	; 0x705
 800319c:	6011      	str	r1, [r2, #0]
 800319e:	689a      	ldr	r2, [r3, #8]
 80031a0:	f022 0203 	bic.w	r2, r2, #3
 80031a4:	609a      	str	r2, [r3, #8]
 80031a6:	689a      	ldr	r2, [r3, #8]
 80031a8:	f042 0202 	orr.w	r2, r2, #2
 80031ac:	609a      	str	r2, [r3, #8]
 80031ae:	461a      	mov	r2, r3
 80031b0:	6893      	ldr	r3, [r2, #8]
 80031b2:	f003 030c 	and.w	r3, r3, #12
 80031b6:	2b08      	cmp	r3, #8
 80031b8:	d1fa      	bne.n	80031b0 <SystemInit+0xdc>
 80031ba:	e7c7      	b.n	800314c <SystemInit+0x78>
 80031bc:	e000ed00 	.word	0xe000ed00
 80031c0:	40023800 	.word	0x40023800
 80031c4:	24003010 	.word	0x24003010
 80031c8:	40007000 	.word	0x40007000
 80031cc:	07405408 	.word	0x07405408
 80031d0:	40023c00 	.word	0x40023c00

080031d4 <SystemCoreClockUpdate>:
 80031d4:	4818      	ldr	r0, [pc, #96]	; (8003238 <SystemCoreClockUpdate+0x64>)
 80031d6:	6883      	ldr	r3, [r0, #8]
 80031d8:	f003 030c 	and.w	r3, r3, #12
 80031dc:	2b04      	cmp	r3, #4
 80031de:	d028      	beq.n	8003232 <SystemCoreClockUpdate+0x5e>
 80031e0:	2b08      	cmp	r3, #8
 80031e2:	d009      	beq.n	80031f8 <SystemCoreClockUpdate+0x24>
 80031e4:	4b15      	ldr	r3, [pc, #84]	; (800323c <SystemCoreClockUpdate+0x68>)
 80031e6:	4a14      	ldr	r2, [pc, #80]	; (8003238 <SystemCoreClockUpdate+0x64>)
 80031e8:	4915      	ldr	r1, [pc, #84]	; (8003240 <SystemCoreClockUpdate+0x6c>)
 80031ea:	6892      	ldr	r2, [r2, #8]
 80031ec:	f3c2 1203 	ubfx	r2, r2, #4, #4
 80031f0:	5c8a      	ldrb	r2, [r1, r2]
 80031f2:	40d3      	lsrs	r3, r2
 80031f4:	610b      	str	r3, [r1, #16]
 80031f6:	4770      	bx	lr
 80031f8:	6843      	ldr	r3, [r0, #4]
 80031fa:	6841      	ldr	r1, [r0, #4]
 80031fc:	f413 0f80 	tst.w	r3, #4194304	; 0x400000
 8003200:	6843      	ldr	r3, [r0, #4]
 8003202:	bf18      	it	ne
 8003204:	480f      	ldrne	r0, [pc, #60]	; (8003244 <SystemCoreClockUpdate+0x70>)
 8003206:	f001 023f 	and.w	r2, r1, #63	; 0x3f
 800320a:	bf0c      	ite	eq
 800320c:	490b      	ldreq	r1, [pc, #44]	; (800323c <SystemCoreClockUpdate+0x68>)
 800320e:	fbb0 f1f2 	udivne	r1, r0, r2
 8003212:	f3c3 1388 	ubfx	r3, r3, #6, #9
 8003216:	bf08      	it	eq
 8003218:	fbb1 f1f2 	udiveq	r1, r1, r2
 800321c:	fb01 f203 	mul.w	r2, r1, r3
 8003220:	4b05      	ldr	r3, [pc, #20]	; (8003238 <SystemCoreClockUpdate+0x64>)
 8003222:	685b      	ldr	r3, [r3, #4]
 8003224:	f3c3 4301 	ubfx	r3, r3, #16, #2
 8003228:	3301      	adds	r3, #1
 800322a:	005b      	lsls	r3, r3, #1
 800322c:	fbb2 f3f3 	udiv	r3, r2, r3
 8003230:	e7d9      	b.n	80031e6 <SystemCoreClockUpdate+0x12>
 8003232:	4b04      	ldr	r3, [pc, #16]	; (8003244 <SystemCoreClockUpdate+0x70>)
 8003234:	e7d7      	b.n	80031e6 <SystemCoreClockUpdate+0x12>
 8003236:	bf00      	nop
 8003238:	40023800 	.word	0x40023800
 800323c:	00f42400 	.word	0x00f42400
 8003240:	20000018 	.word	0x20000018
 8003244:	007a1200 	.word	0x007a1200

08003248 <rt_InitInfAndNaN>:
 8003248:	b508      	push	{r3, lr}
 800324a:	f7ff feb5 	bl	8002fb8 <rtGetNaN>
 800324e:	4b0e      	ldr	r3, [pc, #56]	; (8003288 <rt_InitInfAndNaN+0x40>)
 8003250:	ed83 0b00 	vstr	d0, [r3]
 8003254:	f7ff feb8 	bl	8002fc8 <rtGetNaNF>
 8003258:	4b0c      	ldr	r3, [pc, #48]	; (800328c <rt_InitInfAndNaN+0x44>)
 800325a:	ed83 0a00 	vstr	s0, [r3]
 800325e:	f000 fa1b 	bl	8003698 <rtGetInf>
 8003262:	4b0b      	ldr	r3, [pc, #44]	; (8003290 <rt_InitInfAndNaN+0x48>)
 8003264:	ed83 0b00 	vstr	d0, [r3]
 8003268:	f000 fa1e 	bl	80036a8 <rtGetInfF>
 800326c:	4b09      	ldr	r3, [pc, #36]	; (8003294 <rt_InitInfAndNaN+0x4c>)
 800326e:	ed83 0a00 	vstr	s0, [r3]
 8003272:	f000 fa1f 	bl	80036b4 <rtGetMinusInf>
 8003276:	4b08      	ldr	r3, [pc, #32]	; (8003298 <rt_InitInfAndNaN+0x50>)
 8003278:	ed83 0b00 	vstr	d0, [r3]
 800327c:	f000 fa24 	bl	80036c8 <rtGetMinusInfF>
 8003280:	4b06      	ldr	r3, [pc, #24]	; (800329c <rt_InitInfAndNaN+0x54>)
 8003282:	ed83 0a00 	vstr	s0, [r3]
 8003286:	bd08      	pop	{r3, pc}
 8003288:	200011c0 	.word	0x200011c0
 800328c:	200011b0 	.word	0x200011b0
 8003290:	200011b8 	.word	0x200011b8
 8003294:	200011b4 	.word	0x200011b4
 8003298:	200011c8 	.word	0x200011c8
 800329c:	200011d0 	.word	0x200011d0

080032a0 <rtIsInf>:
 80032a0:	b538      	push	{r3, r4, r5, lr}
 80032a2:	490e      	ldr	r1, [pc, #56]	; (80032dc <rtIsInf+0x3c>)
 80032a4:	ec55 4b10 	vmov	r4, r5, d0
 80032a8:	ee10 2a10 	vmov	r2, s0
 80032ac:	462b      	mov	r3, r5
 80032ae:	e9d1 0100 	ldrd	r0, r1, [r1]
 80032b2:	f001 fa1d 	bl	80046f0 <__aeabi_dcmpeq>
 80032b6:	b970      	cbnz	r0, 80032d6 <rtIsInf+0x36>
 80032b8:	4909      	ldr	r1, [pc, #36]	; (80032e0 <rtIsInf+0x40>)
 80032ba:	462b      	mov	r3, r5
 80032bc:	4622      	mov	r2, r4
 80032be:	e9d1 0100 	ldrd	r0, r1, [r1]
 80032c2:	f001 fa15 	bl	80046f0 <__aeabi_dcmpeq>
 80032c6:	f04f 0301 	mov.w	r3, #1
 80032ca:	b108      	cbz	r0, 80032d0 <rtIsInf+0x30>
 80032cc:	b2d8      	uxtb	r0, r3
 80032ce:	bd38      	pop	{r3, r4, r5, pc}
 80032d0:	4603      	mov	r3, r0
 80032d2:	b2d8      	uxtb	r0, r3
 80032d4:	bd38      	pop	{r3, r4, r5, pc}
 80032d6:	2001      	movs	r0, #1
 80032d8:	bd38      	pop	{r3, r4, r5, pc}
 80032da:	bf00      	nop
 80032dc:	200011b8 	.word	0x200011b8
 80032e0:	200011c8 	.word	0x200011c8

080032e4 <rtIsInfF>:
 80032e4:	4b0a      	ldr	r3, [pc, #40]	; (8003310 <rtIsInfF+0x2c>)
 80032e6:	edd3 7a00 	vldr	s15, [r3]
 80032ea:	eef4 7a40 	vcmp.f32	s15, s0
 80032ee:	eef1 fa10 	vmrs	APSR_nzcv, fpscr
 80032f2:	d00a      	beq.n	800330a <rtIsInfF+0x26>
 80032f4:	4b07      	ldr	r3, [pc, #28]	; (8003314 <rtIsInfF+0x30>)
 80032f6:	edd3 7a00 	vldr	s15, [r3]
 80032fa:	eef4 7a40 	vcmp.f32	s15, s0
 80032fe:	eef1 fa10 	vmrs	APSR_nzcv, fpscr
 8003302:	bf0c      	ite	eq
 8003304:	2001      	moveq	r0, #1
 8003306:	2000      	movne	r0, #0
 8003308:	4770      	bx	lr
 800330a:	2001      	movs	r0, #1
 800330c:	4770      	bx	lr
 800330e:	bf00      	nop
 8003310:	200011b4 	.word	0x200011b4
 8003314:	200011d0 	.word	0x200011d0

08003318 <rtIsNaN>:
 8003318:	2000      	movs	r0, #0
 800331a:	4770      	bx	lr

0800331c <rtIsNaNF>:
 800331c:	2000      	movs	r0, #0
 800331e:	4770      	bx	lr

08003320 <DMA_DeInit>:
 8003320:	6802      	ldr	r2, [r0, #0]
 8003322:	4937      	ldr	r1, [pc, #220]	; (8003400 <DMA_DeInit+0xe0>)
 8003324:	2300      	movs	r3, #0
 8003326:	b410      	push	{r4}
 8003328:	f022 0201 	bic.w	r2, r2, #1
 800332c:	2421      	movs	r4, #33	; 0x21
 800332e:	4288      	cmp	r0, r1
 8003330:	6002      	str	r2, [r0, #0]
 8003332:	6003      	str	r3, [r0, #0]
 8003334:	6043      	str	r3, [r0, #4]
 8003336:	6083      	str	r3, [r0, #8]
 8003338:	60c3      	str	r3, [r0, #12]
 800333a:	6103      	str	r3, [r0, #16]
 800333c:	6144      	str	r4, [r0, #20]
 800333e:	d04d      	beq.n	80033dc <DMA_DeInit+0xbc>
 8003340:	4b30      	ldr	r3, [pc, #192]	; (8003404 <DMA_DeInit+0xe4>)
 8003342:	4298      	cmp	r0, r3
 8003344:	d035      	beq.n	80033b2 <DMA_DeInit+0x92>
 8003346:	4b30      	ldr	r3, [pc, #192]	; (8003408 <DMA_DeInit+0xe8>)
 8003348:	4298      	cmp	r0, r3
 800334a:	d039      	beq.n	80033c0 <DMA_DeInit+0xa0>
 800334c:	4b2f      	ldr	r3, [pc, #188]	; (800340c <DMA_DeInit+0xec>)
 800334e:	4298      	cmp	r0, r3
 8003350:	d03d      	beq.n	80033ce <DMA_DeInit+0xae>
 8003352:	4b2f      	ldr	r3, [pc, #188]	; (8003410 <DMA_DeInit+0xf0>)
 8003354:	4298      	cmp	r0, r3
 8003356:	d047      	beq.n	80033e8 <DMA_DeInit+0xc8>
 8003358:	4b2e      	ldr	r3, [pc, #184]	; (8003414 <DMA_DeInit+0xf4>)
 800335a:	4298      	cmp	r0, r3
 800335c:	d048      	beq.n	80033f0 <DMA_DeInit+0xd0>
 800335e:	4b2e      	ldr	r3, [pc, #184]	; (8003418 <DMA_DeInit+0xf8>)
 8003360:	4298      	cmp	r0, r3
 8003362:	d01d      	beq.n	80033a0 <DMA_DeInit+0x80>
 8003364:	4b2d      	ldr	r3, [pc, #180]	; (800341c <DMA_DeInit+0xfc>)
 8003366:	4298      	cmp	r0, r3
 8003368:	d01e      	beq.n	80033a8 <DMA_DeInit+0x88>
 800336a:	4b2d      	ldr	r3, [pc, #180]	; (8003420 <DMA_DeInit+0x100>)
 800336c:	4298      	cmp	r0, r3
 800336e:	d043      	beq.n	80033f8 <DMA_DeInit+0xd8>
 8003370:	4b2c      	ldr	r3, [pc, #176]	; (8003424 <DMA_DeInit+0x104>)
 8003372:	4298      	cmp	r0, r3
 8003374:	d01d      	beq.n	80033b2 <DMA_DeInit+0x92>
 8003376:	4b2c      	ldr	r3, [pc, #176]	; (8003428 <DMA_DeInit+0x108>)
 8003378:	4298      	cmp	r0, r3
 800337a:	d021      	beq.n	80033c0 <DMA_DeInit+0xa0>
 800337c:	4b2b      	ldr	r3, [pc, #172]	; (800342c <DMA_DeInit+0x10c>)
 800337e:	4298      	cmp	r0, r3
 8003380:	d025      	beq.n	80033ce <DMA_DeInit+0xae>
 8003382:	4b2b      	ldr	r3, [pc, #172]	; (8003430 <DMA_DeInit+0x110>)
 8003384:	4298      	cmp	r0, r3
 8003386:	d02f      	beq.n	80033e8 <DMA_DeInit+0xc8>
 8003388:	4b2a      	ldr	r3, [pc, #168]	; (8003434 <DMA_DeInit+0x114>)
 800338a:	4298      	cmp	r0, r3
 800338c:	d030      	beq.n	80033f0 <DMA_DeInit+0xd0>
 800338e:	4b2a      	ldr	r3, [pc, #168]	; (8003438 <DMA_DeInit+0x118>)
 8003390:	4298      	cmp	r0, r3
 8003392:	d005      	beq.n	80033a0 <DMA_DeInit+0x80>
 8003394:	4b29      	ldr	r3, [pc, #164]	; (800343c <DMA_DeInit+0x11c>)
 8003396:	4298      	cmp	r0, r3
 8003398:	d006      	beq.n	80033a8 <DMA_DeInit+0x88>
 800339a:	f85d 4b04 	ldr.w	r4, [sp], #4
 800339e:	4770      	bx	lr
 80033a0:	4a27      	ldr	r2, [pc, #156]	; (8003440 <DMA_DeInit+0x120>)
 80033a2:	f843 2c94 	str.w	r2, [r3, #-148]
 80033a6:	e7f8      	b.n	800339a <DMA_DeInit+0x7a>
 80033a8:	f04f 523d 	mov.w	r2, #792723456	; 0x2f400000
 80033ac:	f843 2cac 	str.w	r2, [r3, #-172]
 80033b0:	e7f3      	b.n	800339a <DMA_DeInit+0x7a>
 80033b2:	f44f 6274 	mov.w	r2, #3904	; 0xf40
 80033b6:	f843 2c20 	str.w	r2, [r3, #-32]
 80033ba:	f85d 4b04 	ldr.w	r4, [sp], #4
 80033be:	4770      	bx	lr
 80033c0:	f44f 1274 	mov.w	r2, #3997696	; 0x3d0000
 80033c4:	f843 2c38 	str.w	r2, [r3, #-56]
 80033c8:	f85d 4b04 	ldr.w	r4, [sp], #4
 80033cc:	4770      	bx	lr
 80033ce:	f04f 6274 	mov.w	r2, #255852544	; 0xf400000
 80033d2:	f843 2c50 	str.w	r2, [r3, #-80]
 80033d6:	f85d 4b04 	ldr.w	r4, [sp], #4
 80033da:	4770      	bx	lr
 80033dc:	4b19      	ldr	r3, [pc, #100]	; (8003444 <DMA_DeInit+0x124>)
 80033de:	f85d 4b04 	ldr.w	r4, [sp], #4
 80033e2:	223d      	movs	r2, #61	; 0x3d
 80033e4:	609a      	str	r2, [r3, #8]
 80033e6:	4770      	bx	lr
 80033e8:	4a17      	ldr	r2, [pc, #92]	; (8003448 <DMA_DeInit+0x128>)
 80033ea:	f843 2c64 	str.w	r2, [r3, #-100]
 80033ee:	e7d4      	b.n	800339a <DMA_DeInit+0x7a>
 80033f0:	4a16      	ldr	r2, [pc, #88]	; (800344c <DMA_DeInit+0x12c>)
 80033f2:	f843 2c7c 	str.w	r2, [r3, #-124]
 80033f6:	e7d0      	b.n	800339a <DMA_DeInit+0x7a>
 80033f8:	223d      	movs	r2, #61	; 0x3d
 80033fa:	f843 2c08 	str.w	r2, [r3, #-8]
 80033fe:	e7cc      	b.n	800339a <DMA_DeInit+0x7a>
 8003400:	40026010 	.word	0x40026010
 8003404:	40026028 	.word	0x40026028
 8003408:	40026040 	.word	0x40026040
 800340c:	40026058 	.word	0x40026058
 8003410:	40026070 	.word	0x40026070
 8003414:	40026088 	.word	0x40026088
 8003418:	400260a0 	.word	0x400260a0
 800341c:	400260b8 	.word	0x400260b8
 8003420:	40026410 	.word	0x40026410
 8003424:	40026428 	.word	0x40026428
 8003428:	40026440 	.word	0x40026440
 800342c:	40026458 	.word	0x40026458
 8003430:	40026470 	.word	0x40026470
 8003434:	40026488 	.word	0x40026488
 8003438:	400264a0 	.word	0x400264a0
 800343c:	400264b8 	.word	0x400264b8
 8003440:	203d0000 	.word	0x203d0000
 8003444:	40026000 	.word	0x40026000
 8003448:	2000003d 	.word	0x2000003d
 800344c:	20000f40 	.word	0x20000f40

08003450 <DMA_Init>:
 8003450:	f101 0218 	add.w	r2, r1, #24
 8003454:	b4f0      	push	{r4, r5, r6, r7}
 8003456:	ca8c      	ldmia	r2, {r2, r3, r7}
 8003458:	68cd      	ldr	r5, [r1, #12]
 800345a:	680e      	ldr	r6, [r1, #0]
 800345c:	694c      	ldr	r4, [r1, #20]
 800345e:	432e      	orrs	r6, r5
 8003460:	4326      	orrs	r6, r4
 8003462:	4316      	orrs	r6, r2
 8003464:	431e      	orrs	r6, r3
 8003466:	6a4a      	ldr	r2, [r1, #36]	; 0x24
 8003468:	6a8b      	ldr	r3, [r1, #40]	; 0x28
 800346a:	6b4d      	ldr	r5, [r1, #52]	; 0x34
 800346c:	6b8c      	ldr	r4, [r1, #56]	; 0x38
 800346e:	433e      	orrs	r6, r7
 8003470:	4316      	orrs	r6, r2
 8003472:	431e      	orrs	r6, r3
 8003474:	4a0b      	ldr	r2, [pc, #44]	; (80034a4 <DMA_Init+0x54>)
 8003476:	6803      	ldr	r3, [r0, #0]
 8003478:	6acf      	ldr	r7, [r1, #44]	; 0x2c
 800347a:	4335      	orrs	r5, r6
 800347c:	432c      	orrs	r4, r5
 800347e:	401a      	ands	r2, r3
 8003480:	4322      	orrs	r2, r4
 8003482:	6002      	str	r2, [r0, #0]
 8003484:	6b0b      	ldr	r3, [r1, #48]	; 0x30
 8003486:	6942      	ldr	r2, [r0, #20]
 8003488:	690d      	ldr	r5, [r1, #16]
 800348a:	684c      	ldr	r4, [r1, #4]
 800348c:	6889      	ldr	r1, [r1, #8]
 800348e:	433b      	orrs	r3, r7
 8003490:	f022 0207 	bic.w	r2, r2, #7
 8003494:	4313      	orrs	r3, r2
 8003496:	6143      	str	r3, [r0, #20]
 8003498:	6045      	str	r5, [r0, #4]
 800349a:	6084      	str	r4, [r0, #8]
 800349c:	60c1      	str	r1, [r0, #12]
 800349e:	bcf0      	pop	{r4, r5, r6, r7}
 80034a0:	4770      	bx	lr
 80034a2:	bf00      	nop
 80034a4:	f01c803f 	.word	0xf01c803f

080034a8 <DMA_StructInit>:
 80034a8:	2300      	movs	r3, #0
 80034aa:	6003      	str	r3, [r0, #0]
 80034ac:	6043      	str	r3, [r0, #4]
 80034ae:	6083      	str	r3, [r0, #8]
 80034b0:	60c3      	str	r3, [r0, #12]
 80034b2:	6103      	str	r3, [r0, #16]
 80034b4:	6143      	str	r3, [r0, #20]
 80034b6:	6183      	str	r3, [r0, #24]
 80034b8:	61c3      	str	r3, [r0, #28]
 80034ba:	6203      	str	r3, [r0, #32]
 80034bc:	6243      	str	r3, [r0, #36]	; 0x24
 80034be:	6283      	str	r3, [r0, #40]	; 0x28
 80034c0:	62c3      	str	r3, [r0, #44]	; 0x2c
 80034c2:	6303      	str	r3, [r0, #48]	; 0x30
 80034c4:	6343      	str	r3, [r0, #52]	; 0x34
 80034c6:	6383      	str	r3, [r0, #56]	; 0x38
 80034c8:	4770      	bx	lr
 80034ca:	bf00      	nop

080034cc <DMA_Cmd>:
 80034cc:	6803      	ldr	r3, [r0, #0]
 80034ce:	b919      	cbnz	r1, 80034d8 <DMA_Cmd+0xc>
 80034d0:	f023 0301 	bic.w	r3, r3, #1
 80034d4:	6003      	str	r3, [r0, #0]
 80034d6:	4770      	bx	lr
 80034d8:	f043 0301 	orr.w	r3, r3, #1
 80034dc:	6003      	str	r3, [r0, #0]
 80034de:	4770      	bx	lr

080034e0 <DMA_PeriphIncOffsetSizeConfig>:
 80034e0:	6803      	ldr	r3, [r0, #0]
 80034e2:	b919      	cbnz	r1, 80034ec <DMA_PeriphIncOffsetSizeConfig+0xc>
 80034e4:	f423 4300 	bic.w	r3, r3, #32768	; 0x8000
 80034e8:	6003      	str	r3, [r0, #0]
 80034ea:	4770      	bx	lr
 80034ec:	f443 4300 	orr.w	r3, r3, #32768	; 0x8000
 80034f0:	6003      	str	r3, [r0, #0]
 80034f2:	4770      	bx	lr

080034f4 <DMA_FlowControllerConfig>:
 80034f4:	6803      	ldr	r3, [r0, #0]
 80034f6:	b919      	cbnz	r1, 8003500 <DMA_FlowControllerConfig+0xc>
 80034f8:	f023 0320 	bic.w	r3, r3, #32
 80034fc:	6003      	str	r3, [r0, #0]
 80034fe:	4770      	bx	lr
 8003500:	f043 0320 	orr.w	r3, r3, #32
 8003504:	6003      	str	r3, [r0, #0]
 8003506:	4770      	bx	lr

08003508 <DMA_SetCurrDataCounter>:
 8003508:	6041      	str	r1, [r0, #4]
 800350a:	4770      	bx	lr

0800350c <DMA_GetCurrDataCounter>:
 800350c:	6840      	ldr	r0, [r0, #4]
 800350e:	b280      	uxth	r0, r0
 8003510:	4770      	bx	lr
 8003512:	bf00      	nop

08003514 <DMA_DoubleBufferModeConfig>:
 8003514:	6803      	ldr	r3, [r0, #0]
 8003516:	b922      	cbnz	r2, 8003522 <DMA_DoubleBufferModeConfig+0xe>
 8003518:	f423 2300 	bic.w	r3, r3, #524288	; 0x80000
 800351c:	6003      	str	r3, [r0, #0]
 800351e:	6101      	str	r1, [r0, #16]
 8003520:	4770      	bx	lr
 8003522:	f443 2300 	orr.w	r3, r3, #524288	; 0x80000
 8003526:	6003      	str	r3, [r0, #0]
 8003528:	6101      	str	r1, [r0, #16]
 800352a:	4770      	bx	lr

0800352c <DMA_DoubleBufferModeCmd>:
 800352c:	6803      	ldr	r3, [r0, #0]
 800352e:	b919      	cbnz	r1, 8003538 <DMA_DoubleBufferModeCmd+0xc>
 8003530:	f423 2380 	bic.w	r3, r3, #262144	; 0x40000
 8003534:	6003      	str	r3, [r0, #0]
 8003536:	4770      	bx	lr
 8003538:	f443 2380 	orr.w	r3, r3, #262144	; 0x40000
 800353c:	6003      	str	r3, [r0, #0]
 800353e:	4770      	bx	lr

08003540 <DMA_MemoryTargetConfig>:
 8003540:	b90a      	cbnz	r2, 8003546 <DMA_MemoryTargetConfig+0x6>
 8003542:	60c1      	str	r1, [r0, #12]
 8003544:	4770      	bx	lr
 8003546:	6101      	str	r1, [r0, #16]
 8003548:	4770      	bx	lr
 800354a:	bf00      	nop

0800354c <DMA_GetCurrentMemoryTarget>:
 800354c:	6800      	ldr	r0, [r0, #0]
 800354e:	f3c0 40c0 	ubfx	r0, r0, #19, #1
 8003552:	4770      	bx	lr

08003554 <DMA_GetCmdStatus>:
 8003554:	6800      	ldr	r0, [r0, #0]
 8003556:	f000 0001 	and.w	r0, r0, #1
 800355a:	4770      	bx	lr

0800355c <DMA_GetFIFOStatus>:
 800355c:	6940      	ldr	r0, [r0, #20]
 800355e:	f000 0038 	and.w	r0, r0, #56	; 0x38
 8003562:	4770      	bx	lr

08003564 <DMA_GetFlagStatus>:
 8003564:	4b0b      	ldr	r3, [pc, #44]	; (8003594 <DMA_GetFlagStatus+0x30>)
 8003566:	4a0c      	ldr	r2, [pc, #48]	; (8003598 <DMA_GetFlagStatus+0x34>)
 8003568:	b410      	push	{r4}
 800356a:	4c0c      	ldr	r4, [pc, #48]	; (800359c <DMA_GetFlagStatus+0x38>)
 800356c:	42a0      	cmp	r0, r4
 800356e:	bf94      	ite	ls
 8003570:	4618      	movls	r0, r3
 8003572:	4610      	movhi	r0, r2
 8003574:	008b      	lsls	r3, r1, #2
 8003576:	bf4c      	ite	mi
 8003578:	6843      	ldrmi	r3, [r0, #4]
 800357a:	6803      	ldrpl	r3, [r0, #0]
 800357c:	f85d 4b04 	ldr.w	r4, [sp], #4
 8003580:	f021 21f0 	bic.w	r1, r1, #4026593280	; 0xf000f000
 8003584:	f021 1182 	bic.w	r1, r1, #8519810	; 0x820082
 8003588:	4219      	tst	r1, r3
 800358a:	bf14      	ite	ne
 800358c:	2001      	movne	r0, #1
 800358e:	2000      	moveq	r0, #0
 8003590:	4770      	bx	lr
 8003592:	bf00      	nop
 8003594:	40026000 	.word	0x40026000
 8003598:	40026400 	.word	0x40026400
 800359c:	4002640f 	.word	0x4002640f

080035a0 <DMA_ClearFlag>:
 80035a0:	b410      	push	{r4}
 80035a2:	4b09      	ldr	r3, [pc, #36]	; (80035c8 <DMA_ClearFlag+0x28>)
 80035a4:	4c09      	ldr	r4, [pc, #36]	; (80035cc <DMA_ClearFlag+0x2c>)
 80035a6:	4a0a      	ldr	r2, [pc, #40]	; (80035d0 <DMA_ClearFlag+0x30>)
 80035a8:	42a0      	cmp	r0, r4
 80035aa:	bf94      	ite	ls
 80035ac:	4618      	movls	r0, r3
 80035ae:	4610      	movhi	r0, r2
 80035b0:	f011 5f00 	tst.w	r1, #536870912	; 0x20000000
 80035b4:	f021 21f0 	bic.w	r1, r1, #4026593280	; 0xf000f000
 80035b8:	f021 1182 	bic.w	r1, r1, #8519810	; 0x820082
 80035bc:	bf14      	ite	ne
 80035be:	60c1      	strne	r1, [r0, #12]
 80035c0:	6081      	streq	r1, [r0, #8]
 80035c2:	f85d 4b04 	ldr.w	r4, [sp], #4
 80035c6:	4770      	bx	lr
 80035c8:	40026000 	.word	0x40026000
 80035cc:	4002640f 	.word	0x4002640f
 80035d0:	40026400 	.word	0x40026400

080035d4 <DMA_ITConfig>:
 80035d4:	060b      	lsls	r3, r1, #24
 80035d6:	d50c      	bpl.n	80035f2 <DMA_ITConfig+0x1e>
 80035d8:	6943      	ldr	r3, [r0, #20]
 80035da:	b1aa      	cbz	r2, 8003608 <DMA_ITConfig+0x34>
 80035dc:	f043 0380 	orr.w	r3, r3, #128	; 0x80
 80035e0:	2980      	cmp	r1, #128	; 0x80
 80035e2:	6143      	str	r3, [r0, #20]
 80035e4:	d00f      	beq.n	8003606 <DMA_ITConfig+0x32>
 80035e6:	6803      	ldr	r3, [r0, #0]
 80035e8:	f001 011e 	and.w	r1, r1, #30
 80035ec:	4319      	orrs	r1, r3
 80035ee:	6001      	str	r1, [r0, #0]
 80035f0:	4770      	bx	lr
 80035f2:	2980      	cmp	r1, #128	; 0x80
 80035f4:	d007      	beq.n	8003606 <DMA_ITConfig+0x32>
 80035f6:	2a00      	cmp	r2, #0
 80035f8:	d1f5      	bne.n	80035e6 <DMA_ITConfig+0x12>
 80035fa:	6803      	ldr	r3, [r0, #0]
 80035fc:	f001 011e 	and.w	r1, r1, #30
 8003600:	ea23 0101 	bic.w	r1, r3, r1
 8003604:	6001      	str	r1, [r0, #0]
 8003606:	4770      	bx	lr
 8003608:	f023 0380 	bic.w	r3, r3, #128	; 0x80
 800360c:	2980      	cmp	r1, #128	; 0x80
 800360e:	6143      	str	r3, [r0, #20]
 8003610:	d1f3      	bne.n	80035fa <DMA_ITConfig+0x26>
 8003612:	4770      	bx	lr

08003614 <DMA_GetITStatus>:
 8003614:	b470      	push	{r4, r5, r6}
 8003616:	4a10      	ldr	r2, [pc, #64]	; (8003658 <DMA_GetITStatus+0x44>)
 8003618:	4e10      	ldr	r6, [pc, #64]	; (800365c <DMA_GetITStatus+0x48>)
 800361a:	4c11      	ldr	r4, [pc, #68]	; (8003660 <DMA_GetITStatus+0x4c>)
 800361c:	f021 23f0 	bic.w	r3, r1, #4026593280	; 0xf000f000
 8003620:	f023 15c3 	bic.w	r5, r3, #12779715	; 0xc300c3
 8003624:	42b0      	cmp	r0, r6
 8003626:	bf98      	it	ls
 8003628:	4614      	movls	r4, r2
 800362a:	b18d      	cbz	r5, 8003650 <DMA_GetITStatus+0x3c>
 800362c:	6800      	ldr	r0, [r0, #0]
 800362e:	f000 001e 	and.w	r0, r0, #30
 8003632:	ea00 22d1 	and.w	r2, r0, r1, lsr #11
 8003636:	0089      	lsls	r1, r1, #2
 8003638:	bf4c      	ite	mi
 800363a:	6860      	ldrmi	r0, [r4, #4]
 800363c:	6820      	ldrpl	r0, [r4, #0]
 800363e:	f023 1382 	bic.w	r3, r3, #8519810	; 0x820082
 8003642:	4018      	ands	r0, r3
 8003644:	d002      	beq.n	800364c <DMA_GetITStatus+0x38>
 8003646:	1c10      	adds	r0, r2, #0
 8003648:	bf18      	it	ne
 800364a:	2001      	movne	r0, #1
 800364c:	bc70      	pop	{r4, r5, r6}
 800364e:	4770      	bx	lr
 8003650:	6940      	ldr	r0, [r0, #20]
 8003652:	f000 0280 	and.w	r2, r0, #128	; 0x80
 8003656:	e7ee      	b.n	8003636 <DMA_GetITStatus+0x22>
 8003658:	40026000 	.word	0x40026000
 800365c:	4002640f 	.word	0x4002640f
 8003660:	40026400 	.word	0x40026400

08003664 <DMA_ClearITPendingBit>:
 8003664:	b410      	push	{r4}
 8003666:	4b09      	ldr	r3, [pc, #36]	; (800368c <DMA_ClearITPendingBit+0x28>)
 8003668:	4c09      	ldr	r4, [pc, #36]	; (8003690 <DMA_ClearITPendingBit+0x2c>)
 800366a:	4a0a      	ldr	r2, [pc, #40]	; (8003694 <DMA_ClearITPendingBit+0x30>)
 800366c:	42a0      	cmp	r0, r4
 800366e:	bf94      	ite	ls
 8003670:	4618      	movls	r0, r3
 8003672:	4610      	movhi	r0, r2
 8003674:	f011 5f00 	tst.w	r1, #536870912	; 0x20000000
 8003678:	f021 21f0 	bic.w	r1, r1, #4026593280	; 0xf000f000
 800367c:	f021 1182 	bic.w	r1, r1, #8519810	; 0x820082
 8003680:	bf14      	ite	ne
 8003682:	60c1      	strne	r1, [r0, #12]
 8003684:	6081      	streq	r1, [r0, #8]
 8003686:	f85d 4b04 	ldr.w	r4, [sp], #4
 800368a:	4770      	bx	lr
 800368c:	40026000 	.word	0x40026000
 8003690:	4002640f 	.word	0x4002640f
 8003694:	40026400 	.word	0x40026400

08003698 <rtGetInf>:
 8003698:	ed9f 0b01 	vldr	d0, [pc, #4]	; 80036a0 <rtGetInf+0x8>
 800369c:	4770      	bx	lr
 800369e:	bf00      	nop
 80036a0:	00000000 	.word	0x00000000
 80036a4:	7ff00000 	.word	0x7ff00000

080036a8 <rtGetInfF>:
 80036a8:	ed9f 0a01 	vldr	s0, [pc, #4]	; 80036b0 <rtGetInfF+0x8>
 80036ac:	4770      	bx	lr
 80036ae:	bf00      	nop
 80036b0:	7f800000 	.word	0x7f800000

080036b4 <rtGetMinusInf>:
 80036b4:	ed9f 0b02 	vldr	d0, [pc, #8]	; 80036c0 <rtGetMinusInf+0xc>
 80036b8:	4770      	bx	lr
 80036ba:	bf00      	nop
 80036bc:	f3af 8000 	nop.w
 80036c0:	00000000 	.word	0x00000000
 80036c4:	fff00000 	.word	0xfff00000

080036c8 <rtGetMinusInfF>:
 80036c8:	ed9f 0a01 	vldr	s0, [pc, #4]	; 80036d0 <rtGetMinusInfF+0x8>
 80036cc:	4770      	bx	lr
 80036ce:	bf00      	nop
 80036d0:	ff800000 	.word	0xff800000

080036d4 <SchlossBox_EnabledSubsystem>:
 80036d4:	b118      	cbz	r0, 80036de <SchlossBox_EnabledSubsystem+0xa>
 80036d6:	6813      	ldr	r3, [r2, #0]
 80036d8:	600b      	str	r3, [r1, #0]
 80036da:	3301      	adds	r3, #1
 80036dc:	6013      	str	r3, [r2, #0]
 80036de:	4770      	bx	lr

080036e0 <SchlossBox_Debounce>:
 80036e0:	b5f0      	push	{r4, r5, r6, r7, lr}
 80036e2:	6895      	ldr	r5, [r2, #8]
 80036e4:	6854      	ldr	r4, [r2, #4]
 80036e6:	1b2f      	subs	r7, r5, r4
 80036e8:	2f04      	cmp	r7, #4
 80036ea:	dc02      	bgt.n	80036f2 <SchlossBox_Debounce+0x12>
 80036ec:	7b16      	ldrb	r6, [r2, #12]
 80036ee:	2e00      	cmp	r6, #0
 80036f0:	d048      	beq.n	8003784 <SchlossBox_Debounce+0xa4>
 80036f2:	6914      	ldr	r4, [r2, #16]
 80036f4:	600c      	str	r4, [r1, #0]
 80036f6:	3401      	adds	r4, #1
 80036f8:	6114      	str	r4, [r2, #16]
 80036fa:	b300      	cbz	r0, 800373e <SchlossBox_Debounce+0x5e>
 80036fc:	2f04      	cmp	r7, #4
 80036fe:	dc1e      	bgt.n	800373e <SchlossBox_Debounce+0x5e>
 8003700:	7b14      	ldrb	r4, [r2, #12]
 8003702:	b9e4      	cbnz	r4, 800373e <SchlossBox_Debounce+0x5e>
 8003704:	2501      	movs	r5, #1
 8003706:	46ae      	mov	lr, r5
 8003708:	6994      	ldr	r4, [r2, #24]
 800370a:	608c      	str	r4, [r1, #8]
 800370c:	3401      	adds	r4, #1
 800370e:	6194      	str	r4, [r2, #24]
 8003710:	b9bd      	cbnz	r5, 8003742 <SchlossBox_Debounce+0x62>
 8003712:	6854      	ldr	r4, [r2, #4]
 8003714:	6895      	ldr	r5, [r2, #8]
 8003716:	2600      	movs	r6, #0
 8003718:	42ac      	cmp	r4, r5
 800371a:	d200      	bcs.n	800371e <SchlossBox_Debounce+0x3e>
 800371c:	b308      	cbz	r0, 8003762 <SchlossBox_Debounce+0x82>
 800371e:	2b01      	cmp	r3, #1
 8003720:	d026      	beq.n	8003770 <SchlossBox_Debounce+0x90>
 8003722:	2b02      	cmp	r3, #2
 8003724:	d129      	bne.n	800377a <SchlossBox_Debounce+0x9a>
 8003726:	680b      	ldr	r3, [r1, #0]
 8003728:	6848      	ldr	r0, [r1, #4]
 800372a:	6889      	ldr	r1, [r1, #8]
 800372c:	6091      	str	r1, [r2, #8]
 800372e:	f3c3 0380 	ubfx	r3, r3, #2, #1
 8003732:	6050      	str	r0, [r2, #4]
 8003734:	7313      	strb	r3, [r2, #12]
 8003736:	f882 e00d 	strb.w	lr, [r2, #13]
 800373a:	4630      	mov	r0, r6
 800373c:	bdf0      	pop	{r4, r5, r6, r7, pc}
 800373e:	f04f 0e01 	mov.w	lr, #1
 8003742:	7b54      	ldrb	r4, [r2, #13]
 8003744:	2c00      	cmp	r4, #0
 8003746:	d1e4      	bne.n	8003712 <SchlossBox_Debounce+0x32>
 8003748:	6814      	ldr	r4, [r2, #0]
 800374a:	f004 0401 	and.w	r4, r4, #1
 800374e:	f084 0401 	eor.w	r4, r4, #1
 8003752:	730c      	strb	r4, [r1, #12]
 8003754:	6816      	ldr	r6, [r2, #0]
 8003756:	6854      	ldr	r4, [r2, #4]
 8003758:	6895      	ldr	r5, [r2, #8]
 800375a:	3601      	adds	r6, #1
 800375c:	6016      	str	r6, [r2, #0]
 800375e:	2601      	movs	r6, #1
 8003760:	e7da      	b.n	8003718 <SchlossBox_Debounce+0x38>
 8003762:	6950      	ldr	r0, [r2, #20]
 8003764:	6048      	str	r0, [r1, #4]
 8003766:	2b01      	cmp	r3, #1
 8003768:	f100 0001 	add.w	r0, r0, #1
 800376c:	6150      	str	r0, [r2, #20]
 800376e:	d1d8      	bne.n	8003722 <SchlossBox_Debounce+0x42>
 8003770:	2f04      	cmp	r7, #4
 8003772:	bfd4      	ite	le
 8003774:	2600      	movle	r6, #0
 8003776:	2601      	movgt	r6, #1
 8003778:	e7d5      	b.n	8003726 <SchlossBox_Debounce+0x46>
 800377a:	7b0e      	ldrb	r6, [r1, #12]
 800377c:	3600      	adds	r6, #0
 800377e:	bf18      	it	ne
 8003780:	2601      	movne	r6, #1
 8003782:	e7d0      	b.n	8003726 <SchlossBox_Debounce+0x46>
 8003784:	b908      	cbnz	r0, 800378a <SchlossBox_Debounce+0xaa>
 8003786:	4686      	mov	lr, r0
 8003788:	e7c5      	b.n	8003716 <SchlossBox_Debounce+0x36>
 800378a:	4635      	mov	r5, r6
 800378c:	46b6      	mov	lr, r6
 800378e:	e7bb      	b.n	8003708 <SchlossBox_Debounce+0x28>

08003790 <GPIO_DeInit>:
 8003790:	b508      	push	{r3, lr}
 8003792:	4b4b      	ldr	r3, [pc, #300]	; (80038c0 <GPIO_DeInit+0x130>)
 8003794:	4298      	cmp	r0, r3
 8003796:	d02a      	beq.n	80037ee <GPIO_DeInit+0x5e>
 8003798:	4b4a      	ldr	r3, [pc, #296]	; (80038c4 <GPIO_DeInit+0x134>)
 800379a:	4298      	cmp	r0, r3
 800379c:	d031      	beq.n	8003802 <GPIO_DeInit+0x72>
 800379e:	4b4a      	ldr	r3, [pc, #296]	; (80038c8 <GPIO_DeInit+0x138>)
 80037a0:	4298      	cmp	r0, r3
 80037a2:	d038      	beq.n	8003816 <GPIO_DeInit+0x86>
 80037a4:	4b49      	ldr	r3, [pc, #292]	; (80038cc <GPIO_DeInit+0x13c>)
 80037a6:	4298      	cmp	r0, r3
 80037a8:	d03f      	beq.n	800382a <GPIO_DeInit+0x9a>
 80037aa:	4b49      	ldr	r3, [pc, #292]	; (80038d0 <GPIO_DeInit+0x140>)
 80037ac:	4298      	cmp	r0, r3
 80037ae:	d046      	beq.n	800383e <GPIO_DeInit+0xae>
 80037b0:	4b48      	ldr	r3, [pc, #288]	; (80038d4 <GPIO_DeInit+0x144>)
 80037b2:	4298      	cmp	r0, r3
 80037b4:	d04d      	beq.n	8003852 <GPIO_DeInit+0xc2>
 80037b6:	4b48      	ldr	r3, [pc, #288]	; (80038d8 <GPIO_DeInit+0x148>)
 80037b8:	4298      	cmp	r0, r3
 80037ba:	d054      	beq.n	8003866 <GPIO_DeInit+0xd6>
 80037bc:	4b47      	ldr	r3, [pc, #284]	; (80038dc <GPIO_DeInit+0x14c>)
 80037be:	4298      	cmp	r0, r3
 80037c0:	d05b      	beq.n	800387a <GPIO_DeInit+0xea>
 80037c2:	4b47      	ldr	r3, [pc, #284]	; (80038e0 <GPIO_DeInit+0x150>)
 80037c4:	4298      	cmp	r0, r3
 80037c6:	d062      	beq.n	800388e <GPIO_DeInit+0xfe>
 80037c8:	4b46      	ldr	r3, [pc, #280]	; (80038e4 <GPIO_DeInit+0x154>)
 80037ca:	4298      	cmp	r0, r3
 80037cc:	d06b      	beq.n	80038a6 <GPIO_DeInit+0x116>
 80037ce:	4b46      	ldr	r3, [pc, #280]	; (80038e8 <GPIO_DeInit+0x158>)
 80037d0:	4298      	cmp	r0, r3
 80037d2:	d000      	beq.n	80037d6 <GPIO_DeInit+0x46>
 80037d4:	bd08      	pop	{r3, pc}
 80037d6:	2101      	movs	r1, #1
 80037d8:	f44f 6080 	mov.w	r0, #1024	; 0x400
 80037dc:	f7fd fafa 	bl	8000dd4 <RCC_AHB1PeriphResetCmd>
 80037e0:	2100      	movs	r1, #0
 80037e2:	f44f 6080 	mov.w	r0, #1024	; 0x400
 80037e6:	e8bd 4008 	ldmia.w	sp!, {r3, lr}
 80037ea:	f7fd baf3 	b.w	8000dd4 <RCC_AHB1PeriphResetCmd>
 80037ee:	2101      	movs	r1, #1
 80037f0:	4608      	mov	r0, r1
 80037f2:	f7fd faef 	bl	8000dd4 <RCC_AHB1PeriphResetCmd>
 80037f6:	2100      	movs	r1, #0
 80037f8:	2001      	movs	r0, #1
 80037fa:	e8bd 4008 	ldmia.w	sp!, {r3, lr}
 80037fe:	f7fd bae9 	b.w	8000dd4 <RCC_AHB1PeriphResetCmd>
 8003802:	2101      	movs	r1, #1
 8003804:	2002      	movs	r0, #2
 8003806:	f7fd fae5 	bl	8000dd4 <RCC_AHB1PeriphResetCmd>
 800380a:	2100      	movs	r1, #0
 800380c:	2002      	movs	r0, #2
 800380e:	e8bd 4008 	ldmia.w	sp!, {r3, lr}
 8003812:	f7fd badf 	b.w	8000dd4 <RCC_AHB1PeriphResetCmd>
 8003816:	2101      	movs	r1, #1
 8003818:	2004      	movs	r0, #4
 800381a:	f7fd fadb 	bl	8000dd4 <RCC_AHB1PeriphResetCmd>
 800381e:	2100      	movs	r1, #0
 8003820:	2004      	movs	r0, #4
 8003822:	e8bd 4008 	ldmia.w	sp!, {r3, lr}
 8003826:	f7fd bad5 	b.w	8000dd4 <RCC_AHB1PeriphResetCmd>
 800382a:	2101      	movs	r1, #1
 800382c:	2008      	movs	r0, #8
 800382e:	f7fd fad1 	bl	8000dd4 <RCC_AHB1PeriphResetCmd>
 8003832:	2100      	movs	r1, #0
 8003834:	2008      	movs	r0, #8
 8003836:	e8bd 4008 	ldmia.w	sp!, {r3, lr}
 800383a:	f7fd bacb 	b.w	8000dd4 <RCC_AHB1PeriphResetCmd>
 800383e:	2101      	movs	r1, #1
 8003840:	2010      	movs	r0, #16
 8003842:	f7fd fac7 	bl	8000dd4 <RCC_AHB1PeriphResetCmd>
 8003846:	2100      	movs	r1, #0
 8003848:	2010      	movs	r0, #16
 800384a:	e8bd 4008 	ldmia.w	sp!, {r3, lr}
 800384e:	f7fd bac1 	b.w	8000dd4 <RCC_AHB1PeriphResetCmd>
 8003852:	2101      	movs	r1, #1
 8003854:	2020      	movs	r0, #32
 8003856:	f7fd fabd 	bl	8000dd4 <RCC_AHB1PeriphResetCmd>
 800385a:	2100      	movs	r1, #0
 800385c:	2020      	movs	r0, #32
 800385e:	e8bd 4008 	ldmia.w	sp!, {r3, lr}
 8003862:	f7fd bab7 	b.w	8000dd4 <RCC_AHB1PeriphResetCmd>
 8003866:	2101      	movs	r1, #1
 8003868:	2040      	movs	r0, #64	; 0x40
 800386a:	f7fd fab3 	bl	8000dd4 <RCC_AHB1PeriphResetCmd>
 800386e:	2100      	movs	r1, #0
 8003870:	2040      	movs	r0, #64	; 0x40
 8003872:	e8bd 4008 	ldmia.w	sp!, {r3, lr}
 8003876:	f7fd baad 	b.w	8000dd4 <RCC_AHB1PeriphResetCmd>
 800387a:	2101      	movs	r1, #1
 800387c:	2080      	movs	r0, #128	; 0x80
 800387e:	f7fd faa9 	bl	8000dd4 <RCC_AHB1PeriphResetCmd>
 8003882:	2100      	movs	r1, #0
 8003884:	2080      	movs	r0, #128	; 0x80
 8003886:	e8bd 4008 	ldmia.w	sp!, {r3, lr}
 800388a:	f7fd baa3 	b.w	8000dd4 <RCC_AHB1PeriphResetCmd>
 800388e:	2101      	movs	r1, #1
 8003890:	f44f 7080 	mov.w	r0, #256	; 0x100
 8003894:	f7fd fa9e 	bl	8000dd4 <RCC_AHB1PeriphResetCmd>
 8003898:	2100      	movs	r1, #0
 800389a:	f44f 7080 	mov.w	r0, #256	; 0x100
 800389e:	e8bd 4008 	ldmia.w	sp!, {r3, lr}
 80038a2:	f7fd ba97 	b.w	8000dd4 <RCC_AHB1PeriphResetCmd>
 80038a6:	2101      	movs	r1, #1
 80038a8:	f44f 7000 	mov.w	r0, #512	; 0x200
 80038ac:	f7fd fa92 	bl	8000dd4 <RCC_AHB1PeriphResetCmd>
 80038b0:	2100      	movs	r1, #0
 80038b2:	f44f 7000 	mov.w	r0, #512	; 0x200
 80038b6:	e8bd 4008 	ldmia.w	sp!, {r3, lr}
 80038ba:	f7fd ba8b 	b.w	8000dd4 <RCC_AHB1PeriphResetCmd>
 80038be:	bf00      	nop
 80038c0:	40020000 	.word	0x40020000
 80038c4:	40020400 	.word	0x40020400
 80038c8:	40020800 	.word	0x40020800
 80038cc:	40020c00 	.word	0x40020c00
 80038d0:	40021000 	.word	0x40021000
 80038d4:	40021400 	.word	0x40021400
 80038d8:	40021800 	.word	0x40021800
 80038dc:	40021c00 	.word	0x40021c00
 80038e0:	40022000 	.word	0x40022000
 80038e4:	40022400 	.word	0x40022400
 80038e8:	40022800 	.word	0x40022800

080038ec <GPIO_Init>:
 80038ec:	2200      	movs	r2, #0
 80038ee:	e92d 47f0 	stmdb	sp!, {r4, r5, r6, r7, r8, r9, sl, lr}
 80038f2:	4613      	mov	r3, r2
 80038f4:	f8d1 e000 	ldr.w	lr, [r1]
 80038f8:	2701      	movs	r7, #1
 80038fa:	f04f 0c03 	mov.w	ip, #3
 80038fe:	e004      	b.n	800390a <GPIO_Init+0x1e>
 8003900:	3301      	adds	r3, #1
 8003902:	2b10      	cmp	r3, #16
 8003904:	f102 0202 	add.w	r2, r2, #2
 8003908:	d029      	beq.n	800395e <GPIO_Init+0x72>
 800390a:	fa07 f403 	lsl.w	r4, r7, r3
 800390e:	ea34 050e 	bics.w	r5, r4, lr
 8003912:	d1f5      	bne.n	8003900 <GPIO_Init+0x14>
 8003914:	f8d0 8000 	ldr.w	r8, [r0]
 8003918:	790e      	ldrb	r6, [r1, #4]
 800391a:	fa0c f502 	lsl.w	r5, ip, r2
 800391e:	43ed      	mvns	r5, r5
 8003920:	ea08 0805 	and.w	r8, r8, r5
 8003924:	f8c0 8000 	str.w	r8, [r0]
 8003928:	f8d0 9000 	ldr.w	r9, [r0]
 800392c:	fa06 fa02 	lsl.w	sl, r6, r2
 8003930:	3e01      	subs	r6, #1
 8003932:	ea4a 0909 	orr.w	r9, sl, r9
 8003936:	2e01      	cmp	r6, #1
 8003938:	fa0c f802 	lsl.w	r8, ip, r2
 800393c:	f8c0 9000 	str.w	r9, [r0]
 8003940:	d90f      	bls.n	8003962 <GPIO_Init+0x76>
 8003942:	68c5      	ldr	r5, [r0, #12]
 8003944:	79cc      	ldrb	r4, [r1, #7]
 8003946:	ea25 0508 	bic.w	r5, r5, r8
 800394a:	60c5      	str	r5, [r0, #12]
 800394c:	68c5      	ldr	r5, [r0, #12]
 800394e:	4094      	lsls	r4, r2
 8003950:	3301      	adds	r3, #1
 8003952:	432c      	orrs	r4, r5
 8003954:	2b10      	cmp	r3, #16
 8003956:	60c4      	str	r4, [r0, #12]
 8003958:	f102 0202 	add.w	r2, r2, #2
 800395c:	d1d5      	bne.n	800390a <GPIO_Init+0x1e>
 800395e:	e8bd 87f0 	ldmia.w	sp!, {r4, r5, r6, r7, r8, r9, sl, pc}
 8003962:	6886      	ldr	r6, [r0, #8]
 8003964:	f891 9005 	ldrb.w	r9, [r1, #5]
 8003968:	4035      	ands	r5, r6
 800396a:	6085      	str	r5, [r0, #8]
 800396c:	6886      	ldr	r6, [r0, #8]
 800396e:	798d      	ldrb	r5, [r1, #6]
 8003970:	fa09 f902 	lsl.w	r9, r9, r2
 8003974:	ea49 0606 	orr.w	r6, r9, r6
 8003978:	6086      	str	r6, [r0, #8]
 800397a:	6846      	ldr	r6, [r0, #4]
 800397c:	ea26 0404 	bic.w	r4, r6, r4
 8003980:	6044      	str	r4, [r0, #4]
 8003982:	6846      	ldr	r6, [r0, #4]
 8003984:	fa05 f403 	lsl.w	r4, r5, r3
 8003988:	b2a4      	uxth	r4, r4
 800398a:	4334      	orrs	r4, r6
 800398c:	6044      	str	r4, [r0, #4]
 800398e:	e7d8      	b.n	8003942 <GPIO_Init+0x56>

08003990 <GPIO_StructInit>:
 8003990:	2300      	movs	r3, #0
 8003992:	f64f 72ff 	movw	r2, #65535	; 0xffff
 8003996:	6002      	str	r2, [r0, #0]
 8003998:	7103      	strb	r3, [r0, #4]
 800399a:	7143      	strb	r3, [r0, #5]
 800399c:	7183      	strb	r3, [r0, #6]
 800399e:	71c3      	strb	r3, [r0, #7]
 80039a0:	4770      	bx	lr
 80039a2:	bf00      	nop

080039a4 <GPIO_PinLockConfig>:
 80039a4:	b082      	sub	sp, #8
 80039a6:	f44f 3380 	mov.w	r3, #65536	; 0x10000
 80039aa:	9301      	str	r3, [sp, #4]
 80039ac:	9b01      	ldr	r3, [sp, #4]
 80039ae:	430b      	orrs	r3, r1
 80039b0:	9301      	str	r3, [sp, #4]
 80039b2:	9b01      	ldr	r3, [sp, #4]
 80039b4:	61c3      	str	r3, [r0, #28]
 80039b6:	61c1      	str	r1, [r0, #28]
 80039b8:	9b01      	ldr	r3, [sp, #4]
 80039ba:	61c3      	str	r3, [r0, #28]
 80039bc:	69c3      	ldr	r3, [r0, #28]
 80039be:	9301      	str	r3, [sp, #4]
 80039c0:	69c3      	ldr	r3, [r0, #28]
 80039c2:	9301      	str	r3, [sp, #4]
 80039c4:	b002      	add	sp, #8
 80039c6:	4770      	bx	lr

080039c8 <GPIO_ReadInputDataBit>:
 80039c8:	6903      	ldr	r3, [r0, #16]
 80039ca:	4219      	tst	r1, r3
 80039cc:	bf14      	ite	ne
 80039ce:	2001      	movne	r0, #1
 80039d0:	2000      	moveq	r0, #0
 80039d2:	4770      	bx	lr

080039d4 <GPIO_ReadInputData>:
 80039d4:	6900      	ldr	r0, [r0, #16]
 80039d6:	b280      	uxth	r0, r0
 80039d8:	4770      	bx	lr
 80039da:	bf00      	nop

080039dc <GPIO_ReadOutputDataBit>:
 80039dc:	6943      	ldr	r3, [r0, #20]
 80039de:	4219      	tst	r1, r3
 80039e0:	bf14      	ite	ne
 80039e2:	2001      	movne	r0, #1
 80039e4:	2000      	moveq	r0, #0
 80039e6:	4770      	bx	lr

080039e8 <GPIO_ReadOutputData>:
 80039e8:	6940      	ldr	r0, [r0, #20]
 80039ea:	b280      	uxth	r0, r0
 80039ec:	4770      	bx	lr
 80039ee:	bf00      	nop

080039f0 <GPIO_SetBits>:
 80039f0:	8301      	strh	r1, [r0, #24]
 80039f2:	4770      	bx	lr

080039f4 <GPIO_ResetBits>:
 80039f4:	8341      	strh	r1, [r0, #26]
 80039f6:	4770      	bx	lr

080039f8 <GPIO_WriteBit>:
 80039f8:	b90a      	cbnz	r2, 80039fe <GPIO_WriteBit+0x6>
 80039fa:	8341      	strh	r1, [r0, #26]
 80039fc:	4770      	bx	lr
 80039fe:	8301      	strh	r1, [r0, #24]
 8003a00:	4770      	bx	lr
 8003a02:	bf00      	nop

08003a04 <GPIO_Write>:
 8003a04:	6141      	str	r1, [r0, #20]
 8003a06:	4770      	bx	lr

08003a08 <GPIO_ToggleBits>:
 8003a08:	6943      	ldr	r3, [r0, #20]
 8003a0a:	4059      	eors	r1, r3
 8003a0c:	6141      	str	r1, [r0, #20]
 8003a0e:	4770      	bx	lr

08003a10 <GPIO_PinAFConfig>:
 8003a10:	08cb      	lsrs	r3, r1, #3
 8003a12:	eb00 0083 	add.w	r0, r0, r3, lsl #2
 8003a16:	f001 0107 	and.w	r1, r1, #7
 8003a1a:	b410      	push	{r4}
 8003a1c:	0089      	lsls	r1, r1, #2
 8003a1e:	6a04      	ldr	r4, [r0, #32]
 8003a20:	230f      	movs	r3, #15
 8003a22:	408b      	lsls	r3, r1
 8003a24:	ea24 0303 	bic.w	r3, r4, r3
 8003a28:	6203      	str	r3, [r0, #32]
 8003a2a:	6a03      	ldr	r3, [r0, #32]
 8003a2c:	f85d 4b04 	ldr.w	r4, [sp], #4
 8003a30:	408a      	lsls	r2, r1
 8003a32:	ea42 0103 	orr.w	r1, r2, r3
 8003a36:	6201      	str	r1, [r0, #32]
 8003a38:	4770      	bx	lr
 8003a3a:	bf00      	nop
 8003a3c:	0000      	movs	r0, r0
	...

08003a40 <floor>:
 8003a40:	ec51 0b10 	vmov	r0, r1, d0
 8003a44:	f3c1 530a 	ubfx	r3, r1, #20, #11
 8003a48:	e92d 41f0 	stmdb	sp!, {r4, r5, r6, r7, r8, lr}
 8003a4c:	f2a3 35ff 	subw	r5, r3, #1023	; 0x3ff
 8003a50:	2d13      	cmp	r5, #19
 8003a52:	460c      	mov	r4, r1
 8003a54:	460f      	mov	r7, r1
 8003a56:	ee10 6a10 	vmov	r6, s0
 8003a5a:	dc1d      	bgt.n	8003a98 <floor+0x58>
 8003a5c:	2d00      	cmp	r5, #0
 8003a5e:	db43      	blt.n	8003ae8 <floor+0xa8>
 8003a60:	4b3d      	ldr	r3, [pc, #244]	; (8003b58 <floor+0x118>)
 8003a62:	fa43 f805 	asr.w	r8, r3, r5
 8003a66:	ea01 0308 	and.w	r3, r1, r8
 8003a6a:	4303      	orrs	r3, r0
 8003a6c:	d019      	beq.n	8003aa2 <floor+0x62>
 8003a6e:	a338      	add	r3, pc, #224	; (adr r3, 8003b50 <floor+0x110>)
 8003a70:	e9d3 2300 	ldrd	r2, r3, [r3]
 8003a74:	f000 fa22 	bl	8003ebc <__adddf3>
 8003a78:	2200      	movs	r2, #0
 8003a7a:	2300      	movs	r3, #0
 8003a7c:	f000 fe60 	bl	8004740 <__aeabi_dcmpgt>
 8003a80:	b120      	cbz	r0, 8003a8c <floor+0x4c>
 8003a82:	2c00      	cmp	r4, #0
 8003a84:	db49      	blt.n	8003b1a <floor+0xda>
 8003a86:	ea27 0408 	bic.w	r4, r7, r8
 8003a8a:	2600      	movs	r6, #0
 8003a8c:	4623      	mov	r3, r4
 8003a8e:	4632      	mov	r2, r6
 8003a90:	ec43 2b10 	vmov	d0, r2, r3
 8003a94:	e8bd 81f0 	ldmia.w	sp!, {r4, r5, r6, r7, r8, pc}
 8003a98:	2d33      	cmp	r5, #51	; 0x33
 8003a9a:	dd06      	ble.n	8003aaa <floor+0x6a>
 8003a9c:	f5b5 6f80 	cmp.w	r5, #1024	; 0x400
 8003aa0:	d032      	beq.n	8003b08 <floor+0xc8>
 8003aa2:	ec41 0b10 	vmov	d0, r0, r1
 8003aa6:	e8bd 81f0 	ldmia.w	sp!, {r4, r5, r6, r7, r8, pc}
 8003aaa:	f2a3 4313 	subw	r3, r3, #1043	; 0x413
 8003aae:	f04f 38ff 	mov.w	r8, #4294967295
 8003ab2:	fa28 f803 	lsr.w	r8, r8, r3
 8003ab6:	ea10 0f08 	tst.w	r0, r8
 8003aba:	d0f2      	beq.n	8003aa2 <floor+0x62>
 8003abc:	a324      	add	r3, pc, #144	; (adr r3, 8003b50 <floor+0x110>)
 8003abe:	e9d3 2300 	ldrd	r2, r3, [r3]
 8003ac2:	f000 f9fb 	bl	8003ebc <__adddf3>
 8003ac6:	2200      	movs	r2, #0
 8003ac8:	2300      	movs	r3, #0
 8003aca:	f000 fe39 	bl	8004740 <__aeabi_dcmpgt>
 8003ace:	2800      	cmp	r0, #0
 8003ad0:	d0dc      	beq.n	8003a8c <floor+0x4c>
 8003ad2:	2c00      	cmp	r4, #0
 8003ad4:	db27      	blt.n	8003b26 <floor+0xe6>
 8003ad6:	463c      	mov	r4, r7
 8003ad8:	ea26 0608 	bic.w	r6, r6, r8
 8003adc:	4623      	mov	r3, r4
 8003ade:	4632      	mov	r2, r6
 8003ae0:	ec43 2b10 	vmov	d0, r2, r3
 8003ae4:	e8bd 81f0 	ldmia.w	sp!, {r4, r5, r6, r7, r8, pc}
 8003ae8:	a319      	add	r3, pc, #100	; (adr r3, 8003b50 <floor+0x110>)
 8003aea:	e9d3 2300 	ldrd	r2, r3, [r3]
 8003aee:	f000 f9e5 	bl	8003ebc <__adddf3>
 8003af2:	2200      	movs	r2, #0
 8003af4:	2300      	movs	r3, #0
 8003af6:	f000 fe23 	bl	8004740 <__aeabi_dcmpgt>
 8003afa:	2800      	cmp	r0, #0
 8003afc:	d0c6      	beq.n	8003a8c <floor+0x4c>
 8003afe:	2c00      	cmp	r4, #0
 8003b00:	db1c      	blt.n	8003b3c <floor+0xfc>
 8003b02:	2600      	movs	r6, #0
 8003b04:	4634      	mov	r4, r6
 8003b06:	e7c1      	b.n	8003a8c <floor+0x4c>
 8003b08:	ee10 2a10 	vmov	r2, s0
 8003b0c:	460b      	mov	r3, r1
 8003b0e:	f000 f9d5 	bl	8003ebc <__adddf3>
 8003b12:	ec41 0b10 	vmov	d0, r0, r1
 8003b16:	e8bd 81f0 	ldmia.w	sp!, {r4, r5, r6, r7, r8, pc}
 8003b1a:	f44f 1380 	mov.w	r3, #1048576	; 0x100000
 8003b1e:	fa43 f505 	asr.w	r5, r3, r5
 8003b22:	442f      	add	r7, r5
 8003b24:	e7af      	b.n	8003a86 <floor+0x46>
 8003b26:	2d14      	cmp	r5, #20
 8003b28:	d010      	beq.n	8003b4c <floor+0x10c>
 8003b2a:	2301      	movs	r3, #1
 8003b2c:	f1c5 0534 	rsb	r5, r5, #52	; 0x34
 8003b30:	fa03 f505 	lsl.w	r5, r3, r5
 8003b34:	19ae      	adds	r6, r5, r6
 8003b36:	bf28      	it	cs
 8003b38:	18ff      	addcs	r7, r7, r3
 8003b3a:	e7cc      	b.n	8003ad6 <floor+0x96>
 8003b3c:	f024 4200 	bic.w	r2, r4, #2147483648	; 0x80000000
 8003b40:	4b06      	ldr	r3, [pc, #24]	; (8003b5c <floor+0x11c>)
 8003b42:	4332      	orrs	r2, r6
 8003b44:	bf18      	it	ne
 8003b46:	461c      	movne	r4, r3
 8003b48:	2600      	movs	r6, #0
 8003b4a:	e79f      	b.n	8003a8c <floor+0x4c>
 8003b4c:	3701      	adds	r7, #1
 8003b4e:	e7c2      	b.n	8003ad6 <floor+0x96>
 8003b50:	8800759c 	.word	0x8800759c
 8003b54:	7e37e43c 	.word	0x7e37e43c
 8003b58:	000fffff 	.word	0x000fffff
 8003b5c:	bff00000 	.word	0xbff00000

08003b60 <fmod>:
 8003b60:	e92d 43f0 	stmdb	sp!, {r4, r5, r6, r7, r8, r9, lr}
 8003b64:	ed2d 8b02 	vpush	{d8}
 8003b68:	b08b      	sub	sp, #44	; 0x2c
 8003b6a:	ec57 6b10 	vmov	r6, r7, d0
 8003b6e:	ec55 4b11 	vmov	r4, r5, d1
 8003b72:	f000 f861 	bl	8003c38 <__ieee754_fmod>
 8003b76:	4b2e      	ldr	r3, [pc, #184]	; (8003c30 <fmod+0xd0>)
 8003b78:	eeb0 8a40 	vmov.f32	s16, s0
 8003b7c:	eef0 8a60 	vmov.f32	s17, s1
 8003b80:	f993 8000 	ldrsb.w	r8, [r3]
 8003b84:	f1b8 3fff 	cmp.w	r8, #4294967295
 8003b88:	d031      	beq.n	8003bee <fmod+0x8e>
 8003b8a:	4622      	mov	r2, r4
 8003b8c:	462b      	mov	r3, r5
 8003b8e:	4620      	mov	r0, r4
 8003b90:	4629      	mov	r1, r5
 8003b92:	f000 fddf 	bl	8004754 <__aeabi_dcmpun>
 8003b96:	bb50      	cbnz	r0, 8003bee <fmod+0x8e>
 8003b98:	4632      	mov	r2, r6
 8003b9a:	463b      	mov	r3, r7
 8003b9c:	4630      	mov	r0, r6
 8003b9e:	4639      	mov	r1, r7
 8003ba0:	f000 fdd8 	bl	8004754 <__aeabi_dcmpun>
 8003ba4:	4681      	mov	r9, r0
 8003ba6:	bb10      	cbnz	r0, 8003bee <fmod+0x8e>
 8003ba8:	2200      	movs	r2, #0
 8003baa:	2300      	movs	r3, #0
 8003bac:	4620      	mov	r0, r4
 8003bae:	4629      	mov	r1, r5
 8003bb0:	f000 fd9e 	bl	80046f0 <__aeabi_dcmpeq>
 8003bb4:	b1d8      	cbz	r0, 8003bee <fmod+0x8e>
 8003bb6:	4b1f      	ldr	r3, [pc, #124]	; (8003c34 <fmod+0xd4>)
 8003bb8:	f8cd 9020 	str.w	r9, [sp, #32]
 8003bbc:	2201      	movs	r2, #1
 8003bbe:	e9cd 6702 	strd	r6, r7, [sp, #8]
 8003bc2:	e9cd 4504 	strd	r4, r5, [sp, #16]
 8003bc6:	e88d 000c 	stmia.w	sp, {r2, r3}
 8003bca:	f1b8 0f00 	cmp.w	r8, #0
 8003bce:	d117      	bne.n	8003c00 <fmod+0xa0>
 8003bd0:	e9cd 6706 	strd	r6, r7, [sp, #24]
 8003bd4:	4668      	mov	r0, sp
 8003bd6:	f000 f969 	bl	8003eac <matherr>
 8003bda:	b1e0      	cbz	r0, 8003c16 <fmod+0xb6>
 8003bdc:	9b08      	ldr	r3, [sp, #32]
 8003bde:	bb0b      	cbnz	r3, 8003c24 <fmod+0xc4>
 8003be0:	ed9d 0b06 	vldr	d0, [sp, #24]
 8003be4:	b00b      	add	sp, #44	; 0x2c
 8003be6:	ecbd 8b02 	vpop	{d8}
 8003bea:	e8bd 83f0 	ldmia.w	sp!, {r4, r5, r6, r7, r8, r9, pc}
 8003bee:	eeb0 0a48 	vmov.f32	s0, s16
 8003bf2:	eef0 0a68 	vmov.f32	s1, s17
 8003bf6:	b00b      	add	sp, #44	; 0x2c
 8003bf8:	ecbd 8b02 	vpop	{d8}
 8003bfc:	e8bd 83f0 	ldmia.w	sp!, {r4, r5, r6, r7, r8, r9, pc}
 8003c00:	2200      	movs	r2, #0
 8003c02:	2300      	movs	r3, #0
 8003c04:	4610      	mov	r0, r2
 8003c06:	4619      	mov	r1, r3
 8003c08:	f000 fc34 	bl	8004474 <__aeabi_ddiv>
 8003c0c:	f1b8 0f02 	cmp.w	r8, #2
 8003c10:	e9cd 0106 	strd	r0, r1, [sp, #24]
 8003c14:	d1de      	bne.n	8003bd4 <fmod+0x74>
 8003c16:	f000 fdfb 	bl	8004810 <__errno>
 8003c1a:	2321      	movs	r3, #33	; 0x21
 8003c1c:	6003      	str	r3, [r0, #0]
 8003c1e:	9b08      	ldr	r3, [sp, #32]
 8003c20:	2b00      	cmp	r3, #0
 8003c22:	d0dd      	beq.n	8003be0 <fmod+0x80>
 8003c24:	f000 fdf4 	bl	8004810 <__errno>
 8003c28:	9b08      	ldr	r3, [sp, #32]
 8003c2a:	6003      	str	r3, [r0, #0]
 8003c2c:	e7d8      	b.n	8003be0 <fmod+0x80>
 8003c2e:	bf00      	nop
 8003c30:	2000002c 	.word	0x2000002c
 8003c34:	08005360 	.word	0x08005360

08003c38 <__ieee754_fmod>:
 8003c38:	e92d 4ff8 	stmdb	sp!, {r3, r4, r5, r6, r7, r8, r9, sl, fp, lr}
 8003c3c:	ec53 2b11 	vmov	r2, r3, d1
 8003c40:	f023 4900 	bic.w	r9, r3, #2147483648	; 0x80000000
 8003c44:	ea52 0009 	orrs.w	r0, r2, r9
 8003c48:	ec55 4b10 	vmov	r4, r5, d0
 8003c4c:	d025      	beq.n	8003c9a <__ieee754_fmod+0x62>
 8003c4e:	f005 4600 	and.w	r6, r5, #2147483648	; 0x80000000
 8003c52:	488f      	ldr	r0, [pc, #572]	; (8003e90 <__ieee754_fmod+0x258>)
 8003c54:	ea85 0b06 	eor.w	fp, r5, r6
 8003c58:	4583      	cmp	fp, r0
 8003c5a:	dc1e      	bgt.n	8003c9a <__ieee754_fmod+0x62>
 8003c5c:	4250      	negs	r0, r2
 8003c5e:	4310      	orrs	r0, r2
 8003c60:	f8df c244 	ldr.w	ip, [pc, #580]	; 8003ea8 <__ieee754_fmod+0x270>
 8003c64:	ea49 70d0 	orr.w	r0, r9, r0, lsr #31
 8003c68:	4560      	cmp	r0, ip
 8003c6a:	ee11 8a10 	vmov	r8, s2
 8003c6e:	d814      	bhi.n	8003c9a <__ieee754_fmod+0x62>
 8003c70:	45cb      	cmp	fp, r9
 8003c72:	461f      	mov	r7, r3
 8003c74:	ee10 aa10 	vmov	sl, s0
 8003c78:	ee11 ea10 	vmov	lr, s2
 8003c7c:	ee10 1a10 	vmov	r1, s0
 8003c80:	dc17      	bgt.n	8003cb2 <__ieee754_fmod+0x7a>
 8003c82:	db28      	blt.n	8003cd6 <__ieee754_fmod+0x9e>
 8003c84:	4294      	cmp	r4, r2
 8003c86:	d326      	bcc.n	8003cd6 <__ieee754_fmod+0x9e>
 8003c88:	d113      	bne.n	8003cb2 <__ieee754_fmod+0x7a>
 8003c8a:	4b82      	ldr	r3, [pc, #520]	; (8003e94 <__ieee754_fmod+0x25c>)
 8003c8c:	0ff6      	lsrs	r6, r6, #31
 8003c8e:	eb03 03c6 	add.w	r3, r3, r6, lsl #3
 8003c92:	ed93 0b00 	vldr	d0, [r3]
 8003c96:	e8bd 8ff8 	ldmia.w	sp!, {r3, r4, r5, r6, r7, r8, r9, sl, fp, pc}
 8003c9a:	4620      	mov	r0, r4
 8003c9c:	4629      	mov	r1, r5
 8003c9e:	f000 fabf 	bl	8004220 <__aeabi_dmul>
 8003ca2:	4602      	mov	r2, r0
 8003ca4:	460b      	mov	r3, r1
 8003ca6:	f000 fbe5 	bl	8004474 <__aeabi_ddiv>
 8003caa:	ec41 0b10 	vmov	d0, r0, r1
 8003cae:	e8bd 8ff8 	ldmia.w	sp!, {r3, r4, r5, r6, r7, r8, r9, sl, fp, pc}
 8003cb2:	f5bb 1f80 	cmp.w	fp, #1048576	; 0x100000
 8003cb6:	da12      	bge.n	8003cde <__ieee754_fmod+0xa6>
 8003cb8:	f1bb 0f00 	cmp.w	fp, #0
 8003cbc:	f040 80a7 	bne.w	8003e0e <__ieee754_fmod+0x1d6>
 8003cc0:	f1ba 0f00 	cmp.w	sl, #0
 8003cc4:	4653      	mov	r3, sl
 8003cc6:	4874      	ldr	r0, [pc, #464]	; (8003e98 <__ieee754_fmod+0x260>)
 8003cc8:	dd0d      	ble.n	8003ce6 <__ieee754_fmod+0xae>
 8003cca:	005b      	lsls	r3, r3, #1
 8003ccc:	2b00      	cmp	r3, #0
 8003cce:	f100 30ff 	add.w	r0, r0, #4294967295
 8003cd2:	dcfa      	bgt.n	8003cca <__ieee754_fmod+0x92>
 8003cd4:	e007      	b.n	8003ce6 <__ieee754_fmod+0xae>
 8003cd6:	ec45 4b10 	vmov	d0, r4, r5
 8003cda:	e8bd 8ff8 	ldmia.w	sp!, {r3, r4, r5, r6, r7, r8, r9, sl, fp, pc}
 8003cde:	ea4f 502b 	mov.w	r0, fp, asr #20
 8003ce2:	f2a0 30ff 	subw	r0, r0, #1023	; 0x3ff
 8003ce6:	f5b9 1f80 	cmp.w	r9, #1048576	; 0x100000
 8003cea:	da0f      	bge.n	8003d0c <__ieee754_fmod+0xd4>
 8003cec:	f1b9 0f00 	cmp.w	r9, #0
 8003cf0:	f040 80a7 	bne.w	8003e42 <__ieee754_fmod+0x20a>
 8003cf4:	f1b8 0f00 	cmp.w	r8, #0
 8003cf8:	4643      	mov	r3, r8
 8003cfa:	f8df c19c 	ldr.w	ip, [pc, #412]	; 8003e98 <__ieee754_fmod+0x260>
 8003cfe:	dd09      	ble.n	8003d14 <__ieee754_fmod+0xdc>
 8003d00:	005b      	lsls	r3, r3, #1
 8003d02:	2b00      	cmp	r3, #0
 8003d04:	f10c 3cff 	add.w	ip, ip, #4294967295
 8003d08:	dcfa      	bgt.n	8003d00 <__ieee754_fmod+0xc8>
 8003d0a:	e003      	b.n	8003d14 <__ieee754_fmod+0xdc>
 8003d0c:	ea4f 5c29 	mov.w	ip, r9, asr #20
 8003d10:	f2ac 3cff 	subw	ip, ip, #1023	; 0x3ff
 8003d14:	4b61      	ldr	r3, [pc, #388]	; (8003e9c <__ieee754_fmod+0x264>)
 8003d16:	4298      	cmp	r0, r3
 8003d18:	db5b      	blt.n	8003dd2 <__ieee754_fmod+0x19a>
 8003d1a:	f3cb 0313 	ubfx	r3, fp, #0, #20
 8003d1e:	f443 1380 	orr.w	r3, r3, #1048576	; 0x100000
 8003d22:	4a5e      	ldr	r2, [pc, #376]	; (8003e9c <__ieee754_fmod+0x264>)
 8003d24:	4594      	cmp	ip, r2
 8003d26:	db63      	blt.n	8003df0 <__ieee754_fmod+0x1b8>
 8003d28:	f3c7 0513 	ubfx	r5, r7, #0, #20
 8003d2c:	f445 1580 	orr.w	r5, r5, #1048576	; 0x100000
 8003d30:	ebcc 0000 	rsb	r0, ip, r0
 8003d34:	e007      	b.n	8003d46 <__ieee754_fmod+0x10e>
 8003d36:	ea52 0304 	orrs.w	r3, r2, r4
 8003d3a:	d013      	beq.n	8003d64 <__ieee754_fmod+0x12c>
 8003d3c:	0fe3      	lsrs	r3, r4, #31
 8003d3e:	eb03 0342 	add.w	r3, r3, r2, lsl #1
 8003d42:	0061      	lsls	r1, r4, #1
 8003d44:	3801      	subs	r0, #1
 8003d46:	ebce 0401 	rsb	r4, lr, r1
 8003d4a:	1b5a      	subs	r2, r3, r5
 8003d4c:	b190      	cbz	r0, 8003d74 <__ieee754_fmod+0x13c>
 8003d4e:	4571      	cmp	r1, lr
 8003d50:	bf38      	it	cc
 8003d52:	f102 32ff 	addcc.w	r2, r2, #4294967295
 8003d56:	2a00      	cmp	r2, #0
 8003d58:	daed      	bge.n	8003d36 <__ieee754_fmod+0xfe>
 8003d5a:	0fca      	lsrs	r2, r1, #31
 8003d5c:	eb02 0343 	add.w	r3, r2, r3, lsl #1
 8003d60:	0049      	lsls	r1, r1, #1
 8003d62:	e7ef      	b.n	8003d44 <__ieee754_fmod+0x10c>
 8003d64:	4b4b      	ldr	r3, [pc, #300]	; (8003e94 <__ieee754_fmod+0x25c>)
 8003d66:	0ff6      	lsrs	r6, r6, #31
 8003d68:	eb03 06c6 	add.w	r6, r3, r6, lsl #3
 8003d6c:	ed96 0b00 	vldr	d0, [r6]
 8003d70:	e8bd 8ff8 	ldmia.w	sp!, {r3, r4, r5, r6, r7, r8, r9, sl, fp, pc}
 8003d74:	4571      	cmp	r1, lr
 8003d76:	4615      	mov	r5, r2
 8003d78:	bf38      	it	cc
 8003d7a:	f102 35ff 	addcc.w	r5, r2, #4294967295
 8003d7e:	2d00      	cmp	r5, #0
 8003d80:	bfac      	ite	ge
 8003d82:	ebce 0101 	rsbge	r1, lr, r1
 8003d86:	461d      	movlt	r5, r3
 8003d88:	ea55 0301 	orrs.w	r3, r5, r1
 8003d8c:	d0ea      	beq.n	8003d64 <__ieee754_fmod+0x12c>
 8003d8e:	4a44      	ldr	r2, [pc, #272]	; (8003ea0 <__ieee754_fmod+0x268>)
 8003d90:	4295      	cmp	r5, r2
 8003d92:	dc08      	bgt.n	8003da6 <__ieee754_fmod+0x16e>
 8003d94:	0fcb      	lsrs	r3, r1, #31
 8003d96:	eb03 0545 	add.w	r5, r3, r5, lsl #1
 8003d9a:	4295      	cmp	r5, r2
 8003d9c:	f10c 3cff 	add.w	ip, ip, #4294967295
 8003da0:	ea4f 0141 	mov.w	r1, r1, lsl #1
 8003da4:	ddf6      	ble.n	8003d94 <__ieee754_fmod+0x15c>
 8003da6:	4b3d      	ldr	r3, [pc, #244]	; (8003e9c <__ieee754_fmod+0x264>)
 8003da8:	459c      	cmp	ip, r3
 8003daa:	da54      	bge.n	8003e56 <__ieee754_fmod+0x21e>
 8003dac:	4a3b      	ldr	r2, [pc, #236]	; (8003e9c <__ieee754_fmod+0x264>)
 8003dae:	ebcc 0202 	rsb	r2, ip, r2
 8003db2:	2a14      	cmp	r2, #20
 8003db4:	dc5b      	bgt.n	8003e6e <__ieee754_fmod+0x236>
 8003db6:	f1c2 0320 	rsb	r3, r2, #32
 8003dba:	fa05 f303 	lsl.w	r3, r5, r3
 8003dbe:	40d1      	lsrs	r1, r2
 8003dc0:	430b      	orrs	r3, r1
 8003dc2:	4115      	asrs	r5, r2
 8003dc4:	ea45 0106 	orr.w	r1, r5, r6
 8003dc8:	4618      	mov	r0, r3
 8003dca:	ec41 0b10 	vmov	d0, r0, r1
 8003dce:	e8bd 8ff8 	ldmia.w	sp!, {r3, r4, r5, r6, r7, r8, r9, sl, fp, pc}
 8003dd2:	4932      	ldr	r1, [pc, #200]	; (8003e9c <__ieee754_fmod+0x264>)
 8003dd4:	1a09      	subs	r1, r1, r0
 8003dd6:	291f      	cmp	r1, #31
 8003dd8:	dc2d      	bgt.n	8003e36 <__ieee754_fmod+0x1fe>
 8003dda:	f1c1 0320 	rsb	r3, r1, #32
 8003dde:	fa0b fb01 	lsl.w	fp, fp, r1
 8003de2:	fa2a f303 	lsr.w	r3, sl, r3
 8003de6:	ea43 030b 	orr.w	r3, r3, fp
 8003dea:	fa0a f101 	lsl.w	r1, sl, r1
 8003dee:	e798      	b.n	8003d22 <__ieee754_fmod+0xea>
 8003df0:	4c2a      	ldr	r4, [pc, #168]	; (8003e9c <__ieee754_fmod+0x264>)
 8003df2:	ebcc 0404 	rsb	r4, ip, r4
 8003df6:	2c1f      	cmp	r4, #31
 8003df8:	dc15      	bgt.n	8003e26 <__ieee754_fmod+0x1ee>
 8003dfa:	f1c4 0220 	rsb	r2, r4, #32
 8003dfe:	fa09 f504 	lsl.w	r5, r9, r4
 8003e02:	fa28 f202 	lsr.w	r2, r8, r2
 8003e06:	4315      	orrs	r5, r2
 8003e08:	fa08 fe04 	lsl.w	lr, r8, r4
 8003e0c:	e790      	b.n	8003d30 <__ieee754_fmod+0xf8>
 8003e0e:	ea4f 23cb 	mov.w	r3, fp, lsl #11
 8003e12:	2b00      	cmp	r3, #0
 8003e14:	4821      	ldr	r0, [pc, #132]	; (8003e9c <__ieee754_fmod+0x264>)
 8003e16:	f77f af66 	ble.w	8003ce6 <__ieee754_fmod+0xae>
 8003e1a:	005b      	lsls	r3, r3, #1
 8003e1c:	2b00      	cmp	r3, #0
 8003e1e:	f100 30ff 	add.w	r0, r0, #4294967295
 8003e22:	dcfa      	bgt.n	8003e1a <__ieee754_fmod+0x1e2>
 8003e24:	e75f      	b.n	8003ce6 <__ieee754_fmod+0xae>
 8003e26:	4d1f      	ldr	r5, [pc, #124]	; (8003ea4 <__ieee754_fmod+0x26c>)
 8003e28:	ebcc 0505 	rsb	r5, ip, r5
 8003e2c:	fa08 f505 	lsl.w	r5, r8, r5
 8003e30:	f04f 0e00 	mov.w	lr, #0
 8003e34:	e77c      	b.n	8003d30 <__ieee754_fmod+0xf8>
 8003e36:	4b1b      	ldr	r3, [pc, #108]	; (8003ea4 <__ieee754_fmod+0x26c>)
 8003e38:	1a1b      	subs	r3, r3, r0
 8003e3a:	fa0a f303 	lsl.w	r3, sl, r3
 8003e3e:	2100      	movs	r1, #0
 8003e40:	e76f      	b.n	8003d22 <__ieee754_fmod+0xea>
 8003e42:	f8df c058 	ldr.w	ip, [pc, #88]	; 8003e9c <__ieee754_fmod+0x264>
 8003e46:	ea4f 23c9 	mov.w	r3, r9, lsl #11
 8003e4a:	005b      	lsls	r3, r3, #1
 8003e4c:	2b00      	cmp	r3, #0
 8003e4e:	f10c 3cff 	add.w	ip, ip, #4294967295
 8003e52:	dcfa      	bgt.n	8003e4a <__ieee754_fmod+0x212>
 8003e54:	e75e      	b.n	8003d14 <__ieee754_fmod+0xdc>
 8003e56:	f5a5 1580 	sub.w	r5, r5, #1048576	; 0x100000
 8003e5a:	432e      	orrs	r6, r5
 8003e5c:	f20c 3cff 	addw	ip, ip, #1023	; 0x3ff
 8003e60:	ea46 530c 	orr.w	r3, r6, ip, lsl #20
 8003e64:	460a      	mov	r2, r1
 8003e66:	ec43 2b10 	vmov	d0, r2, r3
 8003e6a:	e8bd 8ff8 	ldmia.w	sp!, {r3, r4, r5, r6, r7, r8, r9, sl, fp, pc}
 8003e6e:	2a1f      	cmp	r2, #31
 8003e70:	dc07      	bgt.n	8003e82 <__ieee754_fmod+0x24a>
 8003e72:	f1c2 0320 	rsb	r3, r2, #32
 8003e76:	409d      	lsls	r5, r3
 8003e78:	40d1      	lsrs	r1, r2
 8003e7a:	ea45 0301 	orr.w	r3, r5, r1
 8003e7e:	4635      	mov	r5, r6
 8003e80:	e7a0      	b.n	8003dc4 <__ieee754_fmod+0x18c>
 8003e82:	4b08      	ldr	r3, [pc, #32]	; (8003ea4 <__ieee754_fmod+0x26c>)
 8003e84:	ebcc 0303 	rsb	r3, ip, r3
 8003e88:	fa45 f303 	asr.w	r3, r5, r3
 8003e8c:	4635      	mov	r5, r6
 8003e8e:	e799      	b.n	8003dc4 <__ieee754_fmod+0x18c>
 8003e90:	7fefffff 	.word	0x7fefffff
 8003e94:	08005368 	.word	0x08005368
 8003e98:	fffffbed 	.word	0xfffffbed
 8003e9c:	fffffc02 	.word	0xfffffc02
 8003ea0:	000fffff 	.word	0x000fffff
 8003ea4:	fffffbe2 	.word	0xfffffbe2
 8003ea8:	7ff00000 	.word	0x7ff00000

08003eac <matherr>:
 8003eac:	2000      	movs	r0, #0
 8003eae:	4770      	bx	lr

08003eb0 <__aeabi_drsub>:
 8003eb0:	f081 4100 	eor.w	r1, r1, #2147483648	; 0x80000000
 8003eb4:	e002      	b.n	8003ebc <__adddf3>
 8003eb6:	bf00      	nop

08003eb8 <__aeabi_dsub>:
 8003eb8:	f083 4300 	eor.w	r3, r3, #2147483648	; 0x80000000

08003ebc <__adddf3>:
 8003ebc:	b530      	push	{r4, r5, lr}
 8003ebe:	ea4f 0441 	mov.w	r4, r1, lsl #1
 8003ec2:	ea4f 0543 	mov.w	r5, r3, lsl #1
 8003ec6:	ea94 0f05 	teq	r4, r5
 8003eca:	bf08      	it	eq
 8003ecc:	ea90 0f02 	teqeq	r0, r2
 8003ed0:	bf1f      	itttt	ne
 8003ed2:	ea54 0c00 	orrsne.w	ip, r4, r0
 8003ed6:	ea55 0c02 	orrsne.w	ip, r5, r2
 8003eda:	ea7f 5c64 	mvnsne.w	ip, r4, asr #21
 8003ede:	ea7f 5c65 	mvnsne.w	ip, r5, asr #21
 8003ee2:	f000 80e2 	beq.w	80040aa <__adddf3+0x1ee>
 8003ee6:	ea4f 5454 	mov.w	r4, r4, lsr #21
 8003eea:	ebd4 5555 	rsbs	r5, r4, r5, lsr #21
 8003eee:	bfb8      	it	lt
 8003ef0:	426d      	neglt	r5, r5
 8003ef2:	dd0c      	ble.n	8003f0e <__adddf3+0x52>
 8003ef4:	442c      	add	r4, r5
 8003ef6:	ea80 0202 	eor.w	r2, r0, r2
 8003efa:	ea81 0303 	eor.w	r3, r1, r3
 8003efe:	ea82 0000 	eor.w	r0, r2, r0
 8003f02:	ea83 0101 	eor.w	r1, r3, r1
 8003f06:	ea80 0202 	eor.w	r2, r0, r2
 8003f0a:	ea81 0303 	eor.w	r3, r1, r3
 8003f0e:	2d36      	cmp	r5, #54	; 0x36
 8003f10:	bf88      	it	hi
 8003f12:	bd30      	pophi	{r4, r5, pc}
 8003f14:	f011 4f00 	tst.w	r1, #2147483648	; 0x80000000
 8003f18:	ea4f 3101 	mov.w	r1, r1, lsl #12
 8003f1c:	f44f 1c80 	mov.w	ip, #1048576	; 0x100000
 8003f20:	ea4c 3111 	orr.w	r1, ip, r1, lsr #12
 8003f24:	d002      	beq.n	8003f2c <__adddf3+0x70>
 8003f26:	4240      	negs	r0, r0
 8003f28:	eb61 0141 	sbc.w	r1, r1, r1, lsl #1
 8003f2c:	f013 4f00 	tst.w	r3, #2147483648	; 0x80000000
 8003f30:	ea4f 3303 	mov.w	r3, r3, lsl #12
 8003f34:	ea4c 3313 	orr.w	r3, ip, r3, lsr #12
 8003f38:	d002      	beq.n	8003f40 <__adddf3+0x84>
 8003f3a:	4252      	negs	r2, r2
 8003f3c:	eb63 0343 	sbc.w	r3, r3, r3, lsl #1
 8003f40:	ea94 0f05 	teq	r4, r5
 8003f44:	f000 80a7 	beq.w	8004096 <__adddf3+0x1da>
 8003f48:	f1a4 0401 	sub.w	r4, r4, #1
 8003f4c:	f1d5 0e20 	rsbs	lr, r5, #32
 8003f50:	db0d      	blt.n	8003f6e <__adddf3+0xb2>
 8003f52:	fa02 fc0e 	lsl.w	ip, r2, lr
 8003f56:	fa22 f205 	lsr.w	r2, r2, r5
 8003f5a:	1880      	adds	r0, r0, r2
 8003f5c:	f141 0100 	adc.w	r1, r1, #0
 8003f60:	fa03 f20e 	lsl.w	r2, r3, lr
 8003f64:	1880      	adds	r0, r0, r2
 8003f66:	fa43 f305 	asr.w	r3, r3, r5
 8003f6a:	4159      	adcs	r1, r3
 8003f6c:	e00e      	b.n	8003f8c <__adddf3+0xd0>
 8003f6e:	f1a5 0520 	sub.w	r5, r5, #32
 8003f72:	f10e 0e20 	add.w	lr, lr, #32
 8003f76:	2a01      	cmp	r2, #1
 8003f78:	fa03 fc0e 	lsl.w	ip, r3, lr
 8003f7c:	bf28      	it	cs
 8003f7e:	f04c 0c02 	orrcs.w	ip, ip, #2
 8003f82:	fa43 f305 	asr.w	r3, r3, r5
 8003f86:	18c0      	adds	r0, r0, r3
 8003f88:	eb51 71e3 	adcs.w	r1, r1, r3, asr #31
 8003f8c:	f001 4500 	and.w	r5, r1, #2147483648	; 0x80000000
 8003f90:	d507      	bpl.n	8003fa2 <__adddf3+0xe6>
 8003f92:	f04f 0e00 	mov.w	lr, #0
 8003f96:	f1dc 0c00 	rsbs	ip, ip, #0
 8003f9a:	eb7e 0000 	sbcs.w	r0, lr, r0
 8003f9e:	eb6e 0101 	sbc.w	r1, lr, r1
 8003fa2:	f5b1 1f80 	cmp.w	r1, #1048576	; 0x100000
 8003fa6:	d31b      	bcc.n	8003fe0 <__adddf3+0x124>
 8003fa8:	f5b1 1f00 	cmp.w	r1, #2097152	; 0x200000
 8003fac:	d30c      	bcc.n	8003fc8 <__adddf3+0x10c>
 8003fae:	0849      	lsrs	r1, r1, #1
 8003fb0:	ea5f 0030 	movs.w	r0, r0, rrx
 8003fb4:	ea4f 0c3c 	mov.w	ip, ip, rrx
 8003fb8:	f104 0401 	add.w	r4, r4, #1
 8003fbc:	ea4f 5244 	mov.w	r2, r4, lsl #21
 8003fc0:	f512 0f80 	cmn.w	r2, #4194304	; 0x400000
 8003fc4:	f080 809a 	bcs.w	80040fc <__adddf3+0x240>
 8003fc8:	f1bc 4f00 	cmp.w	ip, #2147483648	; 0x80000000
 8003fcc:	bf08      	it	eq
 8003fce:	ea5f 0c50 	movseq.w	ip, r0, lsr #1
 8003fd2:	f150 0000 	adcs.w	r0, r0, #0
 8003fd6:	eb41 5104 	adc.w	r1, r1, r4, lsl #20
 8003fda:	ea41 0105 	orr.w	r1, r1, r5
 8003fde:	bd30      	pop	{r4, r5, pc}
 8003fe0:	ea5f 0c4c 	movs.w	ip, ip, lsl #1
 8003fe4:	4140      	adcs	r0, r0
 8003fe6:	eb41 0101 	adc.w	r1, r1, r1
 8003fea:	f411 1f80 	tst.w	r1, #1048576	; 0x100000
 8003fee:	f1a4 0401 	sub.w	r4, r4, #1
 8003ff2:	d1e9      	bne.n	8003fc8 <__adddf3+0x10c>
 8003ff4:	f091 0f00 	teq	r1, #0
 8003ff8:	bf04      	itt	eq
 8003ffa:	4601      	moveq	r1, r0
 8003ffc:	2000      	moveq	r0, #0
 8003ffe:	fab1 f381 	clz	r3, r1
 8004002:	bf08      	it	eq
 8004004:	3320      	addeq	r3, #32
 8004006:	f1a3 030b 	sub.w	r3, r3, #11
 800400a:	f1b3 0220 	subs.w	r2, r3, #32
 800400e:	da0c      	bge.n	800402a <__adddf3+0x16e>
 8004010:	320c      	adds	r2, #12
 8004012:	dd08      	ble.n	8004026 <__adddf3+0x16a>
 8004014:	f102 0c14 	add.w	ip, r2, #20
 8004018:	f1c2 020c 	rsb	r2, r2, #12
 800401c:	fa01 f00c 	lsl.w	r0, r1, ip
 8004020:	fa21 f102 	lsr.w	r1, r1, r2
 8004024:	e00c      	b.n	8004040 <__adddf3+0x184>
 8004026:	f102 0214 	add.w	r2, r2, #20
 800402a:	bfd8      	it	le
 800402c:	f1c2 0c20 	rsble	ip, r2, #32
 8004030:	fa01 f102 	lsl.w	r1, r1, r2
 8004034:	fa20 fc0c 	lsr.w	ip, r0, ip
 8004038:	bfdc      	itt	le
 800403a:	ea41 010c 	orrle.w	r1, r1, ip
 800403e:	4090      	lslle	r0, r2
 8004040:	1ae4      	subs	r4, r4, r3
 8004042:	bfa2      	ittt	ge
 8004044:	eb01 5104 	addge.w	r1, r1, r4, lsl #20
 8004048:	4329      	orrge	r1, r5
 800404a:	bd30      	popge	{r4, r5, pc}
 800404c:	ea6f 0404 	mvn.w	r4, r4
 8004050:	3c1f      	subs	r4, #31
 8004052:	da1c      	bge.n	800408e <__adddf3+0x1d2>
 8004054:	340c      	adds	r4, #12
 8004056:	dc0e      	bgt.n	8004076 <__adddf3+0x1ba>
 8004058:	f104 0414 	add.w	r4, r4, #20
 800405c:	f1c4 0220 	rsb	r2, r4, #32
 8004060:	fa20 f004 	lsr.w	r0, r0, r4
 8004064:	fa01 f302 	lsl.w	r3, r1, r2
 8004068:	ea40 0003 	orr.w	r0, r0, r3
 800406c:	fa21 f304 	lsr.w	r3, r1, r4
 8004070:	ea45 0103 	orr.w	r1, r5, r3
 8004074:	bd30      	pop	{r4, r5, pc}
 8004076:	f1c4 040c 	rsb	r4, r4, #12
 800407a:	f1c4 0220 	rsb	r2, r4, #32
 800407e:	fa20 f002 	lsr.w	r0, r0, r2
 8004082:	fa01 f304 	lsl.w	r3, r1, r4
 8004086:	ea40 0003 	orr.w	r0, r0, r3
 800408a:	4629      	mov	r1, r5
 800408c:	bd30      	pop	{r4, r5, pc}
 800408e:	fa21 f004 	lsr.w	r0, r1, r4
 8004092:	4629      	mov	r1, r5
 8004094:	bd30      	pop	{r4, r5, pc}
 8004096:	f094 0f00 	teq	r4, #0
 800409a:	f483 1380 	eor.w	r3, r3, #1048576	; 0x100000
 800409e:	bf06      	itte	eq
 80040a0:	f481 1180 	eoreq.w	r1, r1, #1048576	; 0x100000
 80040a4:	3401      	addeq	r4, #1
 80040a6:	3d01      	subne	r5, #1
 80040a8:	e74e      	b.n	8003f48 <__adddf3+0x8c>
 80040aa:	ea7f 5c64 	mvns.w	ip, r4, asr #21
 80040ae:	bf18      	it	ne
 80040b0:	ea7f 5c65 	mvnsne.w	ip, r5, asr #21
 80040b4:	d029      	beq.n	800410a <__adddf3+0x24e>
 80040b6:	ea94 0f05 	teq	r4, r5
 80040ba:	bf08      	it	eq
 80040bc:	ea90 0f02 	teqeq	r0, r2
 80040c0:	d005      	beq.n	80040ce <__adddf3+0x212>
 80040c2:	ea54 0c00 	orrs.w	ip, r4, r0
 80040c6:	bf04      	itt	eq
 80040c8:	4619      	moveq	r1, r3
 80040ca:	4610      	moveq	r0, r2
 80040cc:	bd30      	pop	{r4, r5, pc}
 80040ce:	ea91 0f03 	teq	r1, r3
 80040d2:	bf1e      	ittt	ne
 80040d4:	2100      	movne	r1, #0
 80040d6:	2000      	movne	r0, #0
 80040d8:	bd30      	popne	{r4, r5, pc}
 80040da:	ea5f 5c54 	movs.w	ip, r4, lsr #21
 80040de:	d105      	bne.n	80040ec <__adddf3+0x230>
 80040e0:	0040      	lsls	r0, r0, #1
 80040e2:	4149      	adcs	r1, r1
 80040e4:	bf28      	it	cs
 80040e6:	f041 4100 	orrcs.w	r1, r1, #2147483648	; 0x80000000
 80040ea:	bd30      	pop	{r4, r5, pc}
 80040ec:	f514 0480 	adds.w	r4, r4, #4194304	; 0x400000
 80040f0:	bf3c      	itt	cc
 80040f2:	f501 1180 	addcc.w	r1, r1, #1048576	; 0x100000
 80040f6:	bd30      	popcc	{r4, r5, pc}
 80040f8:	f001 4500 	and.w	r5, r1, #2147483648	; 0x80000000
 80040fc:	f045 41fe 	orr.w	r1, r5, #2130706432	; 0x7f000000
 8004100:	f441 0170 	orr.w	r1, r1, #15728640	; 0xf00000
 8004104:	f04f 0000 	mov.w	r0, #0
 8004108:	bd30      	pop	{r4, r5, pc}
 800410a:	ea7f 5c64 	mvns.w	ip, r4, asr #21
 800410e:	bf1a      	itte	ne
 8004110:	4619      	movne	r1, r3
 8004112:	4610      	movne	r0, r2
 8004114:	ea7f 5c65 	mvnseq.w	ip, r5, asr #21
 8004118:	bf1c      	itt	ne
 800411a:	460b      	movne	r3, r1
 800411c:	4602      	movne	r2, r0
 800411e:	ea50 3401 	orrs.w	r4, r0, r1, lsl #12
 8004122:	bf06      	itte	eq
 8004124:	ea52 3503 	orrseq.w	r5, r2, r3, lsl #12
 8004128:	ea91 0f03 	teqeq	r1, r3
 800412c:	f441 2100 	orrne.w	r1, r1, #524288	; 0x80000
 8004130:	bd30      	pop	{r4, r5, pc}
 8004132:	bf00      	nop

08004134 <__aeabi_ui2d>:
 8004134:	f090 0f00 	teq	r0, #0
 8004138:	bf04      	itt	eq
 800413a:	2100      	moveq	r1, #0
 800413c:	4770      	bxeq	lr
 800413e:	b530      	push	{r4, r5, lr}
 8004140:	f44f 6480 	mov.w	r4, #1024	; 0x400
 8004144:	f104 0432 	add.w	r4, r4, #50	; 0x32
 8004148:	f04f 0500 	mov.w	r5, #0
 800414c:	f04f 0100 	mov.w	r1, #0
 8004150:	e750      	b.n	8003ff4 <__adddf3+0x138>
 8004152:	bf00      	nop

08004154 <__aeabi_i2d>:
 8004154:	f090 0f00 	teq	r0, #0
 8004158:	bf04      	itt	eq
 800415a:	2100      	moveq	r1, #0
 800415c:	4770      	bxeq	lr
 800415e:	b530      	push	{r4, r5, lr}
 8004160:	f44f 6480 	mov.w	r4, #1024	; 0x400
 8004164:	f104 0432 	add.w	r4, r4, #50	; 0x32
 8004168:	f010 4500 	ands.w	r5, r0, #2147483648	; 0x80000000
 800416c:	bf48      	it	mi
 800416e:	4240      	negmi	r0, r0
 8004170:	f04f 0100 	mov.w	r1, #0
 8004174:	e73e      	b.n	8003ff4 <__adddf3+0x138>
 8004176:	bf00      	nop

08004178 <__aeabi_f2d>:
 8004178:	0042      	lsls	r2, r0, #1
 800417a:	ea4f 01e2 	mov.w	r1, r2, asr #3
 800417e:	ea4f 0131 	mov.w	r1, r1, rrx
 8004182:	ea4f 7002 	mov.w	r0, r2, lsl #28
 8004186:	bf1f      	itttt	ne
 8004188:	f012 437f 	andsne.w	r3, r2, #4278190080	; 0xff000000
 800418c:	f093 4f7f 	teqne	r3, #4278190080	; 0xff000000
 8004190:	f081 5160 	eorne.w	r1, r1, #939524096	; 0x38000000
 8004194:	4770      	bxne	lr
 8004196:	f092 0f00 	teq	r2, #0
 800419a:	bf14      	ite	ne
 800419c:	f093 4f7f 	teqne	r3, #4278190080	; 0xff000000
 80041a0:	4770      	bxeq	lr
 80041a2:	b530      	push	{r4, r5, lr}
 80041a4:	f44f 7460 	mov.w	r4, #896	; 0x380
 80041a8:	f001 4500 	and.w	r5, r1, #2147483648	; 0x80000000
 80041ac:	f021 4100 	bic.w	r1, r1, #2147483648	; 0x80000000
 80041b0:	e720      	b.n	8003ff4 <__adddf3+0x138>
 80041b2:	bf00      	nop

080041b4 <__aeabi_ul2d>:
 80041b4:	ea50 0201 	orrs.w	r2, r0, r1
 80041b8:	bf08      	it	eq
 80041ba:	4770      	bxeq	lr
 80041bc:	b530      	push	{r4, r5, lr}
 80041be:	f04f 0500 	mov.w	r5, #0
 80041c2:	e00a      	b.n	80041da <__aeabi_l2d+0x16>

080041c4 <__aeabi_l2d>:
 80041c4:	ea50 0201 	orrs.w	r2, r0, r1
 80041c8:	bf08      	it	eq
 80041ca:	4770      	bxeq	lr
 80041cc:	b530      	push	{r4, r5, lr}
 80041ce:	f011 4500 	ands.w	r5, r1, #2147483648	; 0x80000000
 80041d2:	d502      	bpl.n	80041da <__aeabi_l2d+0x16>
 80041d4:	4240      	negs	r0, r0
 80041d6:	eb61 0141 	sbc.w	r1, r1, r1, lsl #1
 80041da:	f44f 6480 	mov.w	r4, #1024	; 0x400
 80041de:	f104 0432 	add.w	r4, r4, #50	; 0x32
 80041e2:	ea5f 5c91 	movs.w	ip, r1, lsr #22
 80041e6:	f43f aedc 	beq.w	8003fa2 <__adddf3+0xe6>
 80041ea:	f04f 0203 	mov.w	r2, #3
 80041ee:	ea5f 0cdc 	movs.w	ip, ip, lsr #3
 80041f2:	bf18      	it	ne
 80041f4:	3203      	addne	r2, #3
 80041f6:	ea5f 0cdc 	movs.w	ip, ip, lsr #3
 80041fa:	bf18      	it	ne
 80041fc:	3203      	addne	r2, #3
 80041fe:	eb02 02dc 	add.w	r2, r2, ip, lsr #3
 8004202:	f1c2 0320 	rsb	r3, r2, #32
 8004206:	fa00 fc03 	lsl.w	ip, r0, r3
 800420a:	fa20 f002 	lsr.w	r0, r0, r2
 800420e:	fa01 fe03 	lsl.w	lr, r1, r3
 8004212:	ea40 000e 	orr.w	r0, r0, lr
 8004216:	fa21 f102 	lsr.w	r1, r1, r2
 800421a:	4414      	add	r4, r2
 800421c:	e6c1      	b.n	8003fa2 <__adddf3+0xe6>
 800421e:	bf00      	nop

08004220 <__aeabi_dmul>:
 8004220:	b570      	push	{r4, r5, r6, lr}
 8004222:	f04f 0cff 	mov.w	ip, #255	; 0xff
 8004226:	f44c 6ce0 	orr.w	ip, ip, #1792	; 0x700
 800422a:	ea1c 5411 	ands.w	r4, ip, r1, lsr #20
 800422e:	bf1d      	ittte	ne
 8004230:	ea1c 5513 	andsne.w	r5, ip, r3, lsr #20
 8004234:	ea94 0f0c 	teqne	r4, ip
 8004238:	ea95 0f0c 	teqne	r5, ip
 800423c:	f000 f8de 	bleq	80043fc <__aeabi_dmul+0x1dc>
 8004240:	442c      	add	r4, r5
 8004242:	ea81 0603 	eor.w	r6, r1, r3
 8004246:	ea21 514c 	bic.w	r1, r1, ip, lsl #21
 800424a:	ea23 534c 	bic.w	r3, r3, ip, lsl #21
 800424e:	ea50 3501 	orrs.w	r5, r0, r1, lsl #12
 8004252:	bf18      	it	ne
 8004254:	ea52 3503 	orrsne.w	r5, r2, r3, lsl #12
 8004258:	f441 1180 	orr.w	r1, r1, #1048576	; 0x100000
 800425c:	f443 1380 	orr.w	r3, r3, #1048576	; 0x100000
 8004260:	d038      	beq.n	80042d4 <__aeabi_dmul+0xb4>
 8004262:	fba0 ce02 	umull	ip, lr, r0, r2
 8004266:	f04f 0500 	mov.w	r5, #0
 800426a:	fbe1 e502 	umlal	lr, r5, r1, r2
 800426e:	f006 4200 	and.w	r2, r6, #2147483648	; 0x80000000
 8004272:	fbe0 e503 	umlal	lr, r5, r0, r3
 8004276:	f04f 0600 	mov.w	r6, #0
 800427a:	fbe1 5603 	umlal	r5, r6, r1, r3
 800427e:	f09c 0f00 	teq	ip, #0
 8004282:	bf18      	it	ne
 8004284:	f04e 0e01 	orrne.w	lr, lr, #1
 8004288:	f1a4 04ff 	sub.w	r4, r4, #255	; 0xff
 800428c:	f5b6 7f00 	cmp.w	r6, #512	; 0x200
 8004290:	f564 7440 	sbc.w	r4, r4, #768	; 0x300
 8004294:	d204      	bcs.n	80042a0 <__aeabi_dmul+0x80>
 8004296:	ea5f 0e4e 	movs.w	lr, lr, lsl #1
 800429a:	416d      	adcs	r5, r5
 800429c:	eb46 0606 	adc.w	r6, r6, r6
 80042a0:	ea42 21c6 	orr.w	r1, r2, r6, lsl #11
 80042a4:	ea41 5155 	orr.w	r1, r1, r5, lsr #21
 80042a8:	ea4f 20c5 	mov.w	r0, r5, lsl #11
 80042ac:	ea40 505e 	orr.w	r0, r0, lr, lsr #21
 80042b0:	ea4f 2ece 	mov.w	lr, lr, lsl #11
 80042b4:	f1b4 0cfd 	subs.w	ip, r4, #253	; 0xfd
 80042b8:	bf88      	it	hi
 80042ba:	f5bc 6fe0 	cmphi.w	ip, #1792	; 0x700
 80042be:	d81e      	bhi.n	80042fe <__aeabi_dmul+0xde>
 80042c0:	f1be 4f00 	cmp.w	lr, #2147483648	; 0x80000000
 80042c4:	bf08      	it	eq
 80042c6:	ea5f 0e50 	movseq.w	lr, r0, lsr #1
 80042ca:	f150 0000 	adcs.w	r0, r0, #0
 80042ce:	eb41 5104 	adc.w	r1, r1, r4, lsl #20
 80042d2:	bd70      	pop	{r4, r5, r6, pc}
 80042d4:	f006 4600 	and.w	r6, r6, #2147483648	; 0x80000000
 80042d8:	ea46 0101 	orr.w	r1, r6, r1
 80042dc:	ea40 0002 	orr.w	r0, r0, r2
 80042e0:	ea81 0103 	eor.w	r1, r1, r3
 80042e4:	ebb4 045c 	subs.w	r4, r4, ip, lsr #1
 80042e8:	bfc2      	ittt	gt
 80042ea:	ebd4 050c 	rsbsgt	r5, r4, ip
 80042ee:	ea41 5104 	orrgt.w	r1, r1, r4, lsl #20
 80042f2:	bd70      	popgt	{r4, r5, r6, pc}
 80042f4:	f441 1180 	orr.w	r1, r1, #1048576	; 0x100000
 80042f8:	f04f 0e00 	mov.w	lr, #0
 80042fc:	3c01      	subs	r4, #1
 80042fe:	f300 80ab 	bgt.w	8004458 <__aeabi_dmul+0x238>
 8004302:	f114 0f36 	cmn.w	r4, #54	; 0x36
 8004306:	bfde      	ittt	le
 8004308:	2000      	movle	r0, #0
 800430a:	f001 4100 	andle.w	r1, r1, #2147483648	; 0x80000000
 800430e:	bd70      	pople	{r4, r5, r6, pc}
 8004310:	f1c4 0400 	rsb	r4, r4, #0
 8004314:	3c20      	subs	r4, #32
 8004316:	da35      	bge.n	8004384 <__aeabi_dmul+0x164>
 8004318:	340c      	adds	r4, #12
 800431a:	dc1b      	bgt.n	8004354 <__aeabi_dmul+0x134>
 800431c:	f104 0414 	add.w	r4, r4, #20
 8004320:	f1c4 0520 	rsb	r5, r4, #32
 8004324:	fa00 f305 	lsl.w	r3, r0, r5
 8004328:	fa20 f004 	lsr.w	r0, r0, r4
 800432c:	fa01 f205 	lsl.w	r2, r1, r5
 8004330:	ea40 0002 	orr.w	r0, r0, r2
 8004334:	f001 4200 	and.w	r2, r1, #2147483648	; 0x80000000
 8004338:	f021 4100 	bic.w	r1, r1, #2147483648	; 0x80000000
 800433c:	eb10 70d3 	adds.w	r0, r0, r3, lsr #31
 8004340:	fa21 f604 	lsr.w	r6, r1, r4
 8004344:	eb42 0106 	adc.w	r1, r2, r6
 8004348:	ea5e 0e43 	orrs.w	lr, lr, r3, lsl #1
 800434c:	bf08      	it	eq
 800434e:	ea20 70d3 	biceq.w	r0, r0, r3, lsr #31
 8004352:	bd70      	pop	{r4, r5, r6, pc}
 8004354:	f1c4 040c 	rsb	r4, r4, #12
 8004358:	f1c4 0520 	rsb	r5, r4, #32
 800435c:	fa00 f304 	lsl.w	r3, r0, r4
 8004360:	fa20 f005 	lsr.w	r0, r0, r5
 8004364:	fa01 f204 	lsl.w	r2, r1, r4
 8004368:	ea40 0002 	orr.w	r0, r0, r2
 800436c:	f001 4100 	and.w	r1, r1, #2147483648	; 0x80000000
 8004370:	eb10 70d3 	adds.w	r0, r0, r3, lsr #31
 8004374:	f141 0100 	adc.w	r1, r1, #0
 8004378:	ea5e 0e43 	orrs.w	lr, lr, r3, lsl #1
 800437c:	bf08      	it	eq
 800437e:	ea20 70d3 	biceq.w	r0, r0, r3, lsr #31
 8004382:	bd70      	pop	{r4, r5, r6, pc}
 8004384:	f1c4 0520 	rsb	r5, r4, #32
 8004388:	fa00 f205 	lsl.w	r2, r0, r5
 800438c:	ea4e 0e02 	orr.w	lr, lr, r2
 8004390:	fa20 f304 	lsr.w	r3, r0, r4
 8004394:	fa01 f205 	lsl.w	r2, r1, r5
 8004398:	ea43 0302 	orr.w	r3, r3, r2
 800439c:	fa21 f004 	lsr.w	r0, r1, r4
 80043a0:	f001 4100 	and.w	r1, r1, #2147483648	; 0x80000000
 80043a4:	fa21 f204 	lsr.w	r2, r1, r4
 80043a8:	ea20 0002 	bic.w	r0, r0, r2
 80043ac:	eb00 70d3 	add.w	r0, r0, r3, lsr #31
 80043b0:	ea5e 0e43 	orrs.w	lr, lr, r3, lsl #1
 80043b4:	bf08      	it	eq
 80043b6:	ea20 70d3 	biceq.w	r0, r0, r3, lsr #31
 80043ba:	bd70      	pop	{r4, r5, r6, pc}
 80043bc:	f094 0f00 	teq	r4, #0
 80043c0:	d10f      	bne.n	80043e2 <__aeabi_dmul+0x1c2>
 80043c2:	f001 4600 	and.w	r6, r1, #2147483648	; 0x80000000
 80043c6:	0040      	lsls	r0, r0, #1
 80043c8:	eb41 0101 	adc.w	r1, r1, r1
 80043cc:	f411 1f80 	tst.w	r1, #1048576	; 0x100000
 80043d0:	bf08      	it	eq
 80043d2:	3c01      	subeq	r4, #1
 80043d4:	d0f7      	beq.n	80043c6 <__aeabi_dmul+0x1a6>
 80043d6:	ea41 0106 	orr.w	r1, r1, r6
 80043da:	f095 0f00 	teq	r5, #0
 80043de:	bf18      	it	ne
 80043e0:	4770      	bxne	lr
 80043e2:	f003 4600 	and.w	r6, r3, #2147483648	; 0x80000000
 80043e6:	0052      	lsls	r2, r2, #1
 80043e8:	eb43 0303 	adc.w	r3, r3, r3
 80043ec:	f413 1f80 	tst.w	r3, #1048576	; 0x100000
 80043f0:	bf08      	it	eq
 80043f2:	3d01      	subeq	r5, #1
 80043f4:	d0f7      	beq.n	80043e6 <__aeabi_dmul+0x1c6>
 80043f6:	ea43 0306 	orr.w	r3, r3, r6
 80043fa:	4770      	bx	lr
 80043fc:	ea94 0f0c 	teq	r4, ip
 8004400:	ea0c 5513 	and.w	r5, ip, r3, lsr #20
 8004404:	bf18      	it	ne
 8004406:	ea95 0f0c 	teqne	r5, ip
 800440a:	d00c      	beq.n	8004426 <__aeabi_dmul+0x206>
 800440c:	ea50 0641 	orrs.w	r6, r0, r1, lsl #1
 8004410:	bf18      	it	ne
 8004412:	ea52 0643 	orrsne.w	r6, r2, r3, lsl #1
 8004416:	d1d1      	bne.n	80043bc <__aeabi_dmul+0x19c>
 8004418:	ea81 0103 	eor.w	r1, r1, r3
 800441c:	f001 4100 	and.w	r1, r1, #2147483648	; 0x80000000
 8004420:	f04f 0000 	mov.w	r0, #0
 8004424:	bd70      	pop	{r4, r5, r6, pc}
 8004426:	ea50 0641 	orrs.w	r6, r0, r1, lsl #1
 800442a:	bf06      	itte	eq
 800442c:	4610      	moveq	r0, r2
 800442e:	4619      	moveq	r1, r3
 8004430:	ea52 0643 	orrsne.w	r6, r2, r3, lsl #1
 8004434:	d019      	beq.n	800446a <__aeabi_dmul+0x24a>
 8004436:	ea94 0f0c 	teq	r4, ip
 800443a:	d102      	bne.n	8004442 <__aeabi_dmul+0x222>
 800443c:	ea50 3601 	orrs.w	r6, r0, r1, lsl #12
 8004440:	d113      	bne.n	800446a <__aeabi_dmul+0x24a>
 8004442:	ea95 0f0c 	teq	r5, ip
 8004446:	d105      	bne.n	8004454 <__aeabi_dmul+0x234>
 8004448:	ea52 3603 	orrs.w	r6, r2, r3, lsl #12
 800444c:	bf1c      	itt	ne
 800444e:	4610      	movne	r0, r2
 8004450:	4619      	movne	r1, r3
 8004452:	d10a      	bne.n	800446a <__aeabi_dmul+0x24a>
 8004454:	ea81 0103 	eor.w	r1, r1, r3
 8004458:	f001 4100 	and.w	r1, r1, #2147483648	; 0x80000000
 800445c:	f041 41fe 	orr.w	r1, r1, #2130706432	; 0x7f000000
 8004460:	f441 0170 	orr.w	r1, r1, #15728640	; 0xf00000
 8004464:	f04f 0000 	mov.w	r0, #0
 8004468:	bd70      	pop	{r4, r5, r6, pc}
 800446a:	f041 41fe 	orr.w	r1, r1, #2130706432	; 0x7f000000
 800446e:	f441 0178 	orr.w	r1, r1, #16252928	; 0xf80000
 8004472:	bd70      	pop	{r4, r5, r6, pc}

08004474 <__aeabi_ddiv>:
 8004474:	b570      	push	{r4, r5, r6, lr}
 8004476:	f04f 0cff 	mov.w	ip, #255	; 0xff
 800447a:	f44c 6ce0 	orr.w	ip, ip, #1792	; 0x700
 800447e:	ea1c 5411 	ands.w	r4, ip, r1, lsr #20
 8004482:	bf1d      	ittte	ne
 8004484:	ea1c 5513 	andsne.w	r5, ip, r3, lsr #20
 8004488:	ea94 0f0c 	teqne	r4, ip
 800448c:	ea95 0f0c 	teqne	r5, ip
 8004490:	f000 f8a7 	bleq	80045e2 <__aeabi_ddiv+0x16e>
 8004494:	eba4 0405 	sub.w	r4, r4, r5
 8004498:	ea81 0e03 	eor.w	lr, r1, r3
 800449c:	ea52 3503 	orrs.w	r5, r2, r3, lsl #12
 80044a0:	ea4f 3101 	mov.w	r1, r1, lsl #12
 80044a4:	f000 8088 	beq.w	80045b8 <__aeabi_ddiv+0x144>
 80044a8:	ea4f 3303 	mov.w	r3, r3, lsl #12
 80044ac:	f04f 5580 	mov.w	r5, #268435456	; 0x10000000
 80044b0:	ea45 1313 	orr.w	r3, r5, r3, lsr #4
 80044b4:	ea43 6312 	orr.w	r3, r3, r2, lsr #24
 80044b8:	ea4f 2202 	mov.w	r2, r2, lsl #8
 80044bc:	ea45 1511 	orr.w	r5, r5, r1, lsr #4
 80044c0:	ea45 6510 	orr.w	r5, r5, r0, lsr #24
 80044c4:	ea4f 2600 	mov.w	r6, r0, lsl #8
 80044c8:	f00e 4100 	and.w	r1, lr, #2147483648	; 0x80000000
 80044cc:	429d      	cmp	r5, r3
 80044ce:	bf08      	it	eq
 80044d0:	4296      	cmpeq	r6, r2
 80044d2:	f144 04fd 	adc.w	r4, r4, #253	; 0xfd
 80044d6:	f504 7440 	add.w	r4, r4, #768	; 0x300
 80044da:	d202      	bcs.n	80044e2 <__aeabi_ddiv+0x6e>
 80044dc:	085b      	lsrs	r3, r3, #1
 80044de:	ea4f 0232 	mov.w	r2, r2, rrx
 80044e2:	1ab6      	subs	r6, r6, r2
 80044e4:	eb65 0503 	sbc.w	r5, r5, r3
 80044e8:	085b      	lsrs	r3, r3, #1
 80044ea:	ea4f 0232 	mov.w	r2, r2, rrx
 80044ee:	f44f 1080 	mov.w	r0, #1048576	; 0x100000
 80044f2:	f44f 2c00 	mov.w	ip, #524288	; 0x80000
 80044f6:	ebb6 0e02 	subs.w	lr, r6, r2
 80044fa:	eb75 0e03 	sbcs.w	lr, r5, r3
 80044fe:	bf22      	ittt	cs
 8004500:	1ab6      	subcs	r6, r6, r2
 8004502:	4675      	movcs	r5, lr
 8004504:	ea40 000c 	orrcs.w	r0, r0, ip
 8004508:	085b      	lsrs	r3, r3, #1
 800450a:	ea4f 0232 	mov.w	r2, r2, rrx
 800450e:	ebb6 0e02 	subs.w	lr, r6, r2
 8004512:	eb75 0e03 	sbcs.w	lr, r5, r3
 8004516:	bf22      	ittt	cs
 8004518:	1ab6      	subcs	r6, r6, r2
 800451a:	4675      	movcs	r5, lr
 800451c:	ea40 005c 	orrcs.w	r0, r0, ip, lsr #1
 8004520:	085b      	lsrs	r3, r3, #1
 8004522:	ea4f 0232 	mov.w	r2, r2, rrx
 8004526:	ebb6 0e02 	subs.w	lr, r6, r2
 800452a:	eb75 0e03 	sbcs.w	lr, r5, r3
 800452e:	bf22      	ittt	cs
 8004530:	1ab6      	subcs	r6, r6, r2
 8004532:	4675      	movcs	r5, lr
 8004534:	ea40 009c 	orrcs.w	r0, r0, ip, lsr #2
 8004538:	085b      	lsrs	r3, r3, #1
 800453a:	ea4f 0232 	mov.w	r2, r2, rrx
 800453e:	ebb6 0e02 	subs.w	lr, r6, r2
 8004542:	eb75 0e03 	sbcs.w	lr, r5, r3
 8004546:	bf22      	ittt	cs
 8004548:	1ab6      	subcs	r6, r6, r2
 800454a:	4675      	movcs	r5, lr
 800454c:	ea40 00dc 	orrcs.w	r0, r0, ip, lsr #3
 8004550:	ea55 0e06 	orrs.w	lr, r5, r6
 8004554:	d018      	beq.n	8004588 <__aeabi_ddiv+0x114>
 8004556:	ea4f 1505 	mov.w	r5, r5, lsl #4
 800455a:	ea45 7516 	orr.w	r5, r5, r6, lsr #28
 800455e:	ea4f 1606 	mov.w	r6, r6, lsl #4
 8004562:	ea4f 03c3 	mov.w	r3, r3, lsl #3
 8004566:	ea43 7352 	orr.w	r3, r3, r2, lsr #29
 800456a:	ea4f 02c2 	mov.w	r2, r2, lsl #3
 800456e:	ea5f 1c1c 	movs.w	ip, ip, lsr #4
 8004572:	d1c0      	bne.n	80044f6 <__aeabi_ddiv+0x82>
 8004574:	f411 1f80 	tst.w	r1, #1048576	; 0x100000
 8004578:	d10b      	bne.n	8004592 <__aeabi_ddiv+0x11e>
 800457a:	ea41 0100 	orr.w	r1, r1, r0
 800457e:	f04f 0000 	mov.w	r0, #0
 8004582:	f04f 4c00 	mov.w	ip, #2147483648	; 0x80000000
 8004586:	e7b6      	b.n	80044f6 <__aeabi_ddiv+0x82>
 8004588:	f411 1f80 	tst.w	r1, #1048576	; 0x100000
 800458c:	bf04      	itt	eq
 800458e:	4301      	orreq	r1, r0
 8004590:	2000      	moveq	r0, #0
 8004592:	f1b4 0cfd 	subs.w	ip, r4, #253	; 0xfd
 8004596:	bf88      	it	hi
 8004598:	f5bc 6fe0 	cmphi.w	ip, #1792	; 0x700
 800459c:	f63f aeaf 	bhi.w	80042fe <__aeabi_dmul+0xde>
 80045a0:	ebb5 0c03 	subs.w	ip, r5, r3
 80045a4:	bf04      	itt	eq
 80045a6:	ebb6 0c02 	subseq.w	ip, r6, r2
 80045aa:	ea5f 0c50 	movseq.w	ip, r0, lsr #1
 80045ae:	f150 0000 	adcs.w	r0, r0, #0
 80045b2:	eb41 5104 	adc.w	r1, r1, r4, lsl #20
 80045b6:	bd70      	pop	{r4, r5, r6, pc}
 80045b8:	f00e 4e00 	and.w	lr, lr, #2147483648	; 0x80000000
 80045bc:	ea4e 3111 	orr.w	r1, lr, r1, lsr #12
 80045c0:	eb14 045c 	adds.w	r4, r4, ip, lsr #1
 80045c4:	bfc2      	ittt	gt
 80045c6:	ebd4 050c 	rsbsgt	r5, r4, ip
 80045ca:	ea41 5104 	orrgt.w	r1, r1, r4, lsl #20
 80045ce:	bd70      	popgt	{r4, r5, r6, pc}
 80045d0:	f441 1180 	orr.w	r1, r1, #1048576	; 0x100000
 80045d4:	f04f 0e00 	mov.w	lr, #0
 80045d8:	3c01      	subs	r4, #1
 80045da:	e690      	b.n	80042fe <__aeabi_dmul+0xde>
 80045dc:	ea45 0e06 	orr.w	lr, r5, r6
 80045e0:	e68d      	b.n	80042fe <__aeabi_dmul+0xde>
 80045e2:	ea0c 5513 	and.w	r5, ip, r3, lsr #20
 80045e6:	ea94 0f0c 	teq	r4, ip
 80045ea:	bf08      	it	eq
 80045ec:	ea95 0f0c 	teqeq	r5, ip
 80045f0:	f43f af3b 	beq.w	800446a <__aeabi_dmul+0x24a>
 80045f4:	ea94 0f0c 	teq	r4, ip
 80045f8:	d10a      	bne.n	8004610 <__aeabi_ddiv+0x19c>
 80045fa:	ea50 3401 	orrs.w	r4, r0, r1, lsl #12
 80045fe:	f47f af34 	bne.w	800446a <__aeabi_dmul+0x24a>
 8004602:	ea95 0f0c 	teq	r5, ip
 8004606:	f47f af25 	bne.w	8004454 <__aeabi_dmul+0x234>
 800460a:	4610      	mov	r0, r2
 800460c:	4619      	mov	r1, r3
 800460e:	e72c      	b.n	800446a <__aeabi_dmul+0x24a>
 8004610:	ea95 0f0c 	teq	r5, ip
 8004614:	d106      	bne.n	8004624 <__aeabi_ddiv+0x1b0>
 8004616:	ea52 3503 	orrs.w	r5, r2, r3, lsl #12
 800461a:	f43f aefd 	beq.w	8004418 <__aeabi_dmul+0x1f8>
 800461e:	4610      	mov	r0, r2
 8004620:	4619      	mov	r1, r3
 8004622:	e722      	b.n	800446a <__aeabi_dmul+0x24a>
 8004624:	ea50 0641 	orrs.w	r6, r0, r1, lsl #1
 8004628:	bf18      	it	ne
 800462a:	ea52 0643 	orrsne.w	r6, r2, r3, lsl #1
 800462e:	f47f aec5 	bne.w	80043bc <__aeabi_dmul+0x19c>
 8004632:	ea50 0441 	orrs.w	r4, r0, r1, lsl #1
 8004636:	f47f af0d 	bne.w	8004454 <__aeabi_dmul+0x234>
 800463a:	ea52 0543 	orrs.w	r5, r2, r3, lsl #1
 800463e:	f47f aeeb 	bne.w	8004418 <__aeabi_dmul+0x1f8>
 8004642:	e712      	b.n	800446a <__aeabi_dmul+0x24a>

08004644 <__gedf2>:
 8004644:	f04f 3cff 	mov.w	ip, #4294967295
 8004648:	e006      	b.n	8004658 <__cmpdf2+0x4>
 800464a:	bf00      	nop

0800464c <__ledf2>:
 800464c:	f04f 0c01 	mov.w	ip, #1
 8004650:	e002      	b.n	8004658 <__cmpdf2+0x4>
 8004652:	bf00      	nop

08004654 <__cmpdf2>:
 8004654:	f04f 0c01 	mov.w	ip, #1
 8004658:	f84d cd04 	str.w	ip, [sp, #-4]!
 800465c:	ea4f 0c41 	mov.w	ip, r1, lsl #1
 8004660:	ea7f 5c6c 	mvns.w	ip, ip, asr #21
 8004664:	ea4f 0c43 	mov.w	ip, r3, lsl #1
 8004668:	bf18      	it	ne
 800466a:	ea7f 5c6c 	mvnsne.w	ip, ip, asr #21
 800466e:	d01b      	beq.n	80046a8 <__cmpdf2+0x54>
 8004670:	b001      	add	sp, #4
 8004672:	ea50 0c41 	orrs.w	ip, r0, r1, lsl #1
 8004676:	bf0c      	ite	eq
 8004678:	ea52 0c43 	orrseq.w	ip, r2, r3, lsl #1
 800467c:	ea91 0f03 	teqne	r1, r3
 8004680:	bf02      	ittt	eq
 8004682:	ea90 0f02 	teqeq	r0, r2
 8004686:	2000      	moveq	r0, #0
 8004688:	4770      	bxeq	lr
 800468a:	f110 0f00 	cmn.w	r0, #0
 800468e:	ea91 0f03 	teq	r1, r3
 8004692:	bf58      	it	pl
 8004694:	4299      	cmppl	r1, r3
 8004696:	bf08      	it	eq
 8004698:	4290      	cmpeq	r0, r2
 800469a:	bf2c      	ite	cs
 800469c:	17d8      	asrcs	r0, r3, #31
 800469e:	ea6f 70e3 	mvncc.w	r0, r3, asr #31
 80046a2:	f040 0001 	orr.w	r0, r0, #1
 80046a6:	4770      	bx	lr
 80046a8:	ea4f 0c41 	mov.w	ip, r1, lsl #1
 80046ac:	ea7f 5c6c 	mvns.w	ip, ip, asr #21
 80046b0:	d102      	bne.n	80046b8 <__cmpdf2+0x64>
 80046b2:	ea50 3c01 	orrs.w	ip, r0, r1, lsl #12
 80046b6:	d107      	bne.n	80046c8 <__cmpdf2+0x74>
 80046b8:	ea4f 0c43 	mov.w	ip, r3, lsl #1
 80046bc:	ea7f 5c6c 	mvns.w	ip, ip, asr #21
 80046c0:	d1d6      	bne.n	8004670 <__cmpdf2+0x1c>
 80046c2:	ea52 3c03 	orrs.w	ip, r2, r3, lsl #12
 80046c6:	d0d3      	beq.n	8004670 <__cmpdf2+0x1c>
 80046c8:	f85d 0b04 	ldr.w	r0, [sp], #4
 80046cc:	4770      	bx	lr
 80046ce:	bf00      	nop

080046d0 <__aeabi_cdrcmple>:
 80046d0:	4684      	mov	ip, r0
 80046d2:	4610      	mov	r0, r2
 80046d4:	4662      	mov	r2, ip
 80046d6:	468c      	mov	ip, r1
 80046d8:	4619      	mov	r1, r3
 80046da:	4663      	mov	r3, ip
 80046dc:	e000      	b.n	80046e0 <__aeabi_cdcmpeq>
 80046de:	bf00      	nop

080046e0 <__aeabi_cdcmpeq>:
 80046e0:	b501      	push	{r0, lr}
 80046e2:	f7ff ffb7 	bl	8004654 <__cmpdf2>
 80046e6:	2800      	cmp	r0, #0
 80046e8:	bf48      	it	mi
 80046ea:	f110 0f00 	cmnmi.w	r0, #0
 80046ee:	bd01      	pop	{r0, pc}

080046f0 <__aeabi_dcmpeq>:
 80046f0:	f84d ed08 	str.w	lr, [sp, #-8]!
 80046f4:	f7ff fff4 	bl	80046e0 <__aeabi_cdcmpeq>
 80046f8:	bf0c      	ite	eq
 80046fa:	2001      	moveq	r0, #1
 80046fc:	2000      	movne	r0, #0
 80046fe:	f85d fb08 	ldr.w	pc, [sp], #8
 8004702:	bf00      	nop

08004704 <__aeabi_dcmplt>:
 8004704:	f84d ed08 	str.w	lr, [sp, #-8]!
 8004708:	f7ff ffea 	bl	80046e0 <__aeabi_cdcmpeq>
 800470c:	bf34      	ite	cc
 800470e:	2001      	movcc	r0, #1
 8004710:	2000      	movcs	r0, #0
 8004712:	f85d fb08 	ldr.w	pc, [sp], #8
 8004716:	bf00      	nop

08004718 <__aeabi_dcmple>:
 8004718:	f84d ed08 	str.w	lr, [sp, #-8]!
 800471c:	f7ff ffe0 	bl	80046e0 <__aeabi_cdcmpeq>
 8004720:	bf94      	ite	ls
 8004722:	2001      	movls	r0, #1
 8004724:	2000      	movhi	r0, #0
 8004726:	f85d fb08 	ldr.w	pc, [sp], #8
 800472a:	bf00      	nop

0800472c <__aeabi_dcmpge>:
 800472c:	f84d ed08 	str.w	lr, [sp, #-8]!
 8004730:	f7ff ffce 	bl	80046d0 <__aeabi_cdrcmple>
 8004734:	bf94      	ite	ls
 8004736:	2001      	movls	r0, #1
 8004738:	2000      	movhi	r0, #0
 800473a:	f85d fb08 	ldr.w	pc, [sp], #8
 800473e:	bf00      	nop

08004740 <__aeabi_dcmpgt>:
 8004740:	f84d ed08 	str.w	lr, [sp, #-8]!
 8004744:	f7ff ffc4 	bl	80046d0 <__aeabi_cdrcmple>
 8004748:	bf34      	ite	cc
 800474a:	2001      	movcc	r0, #1
 800474c:	2000      	movcs	r0, #0
 800474e:	f85d fb08 	ldr.w	pc, [sp], #8
 8004752:	bf00      	nop

08004754 <__aeabi_dcmpun>:
 8004754:	ea4f 0c41 	mov.w	ip, r1, lsl #1
 8004758:	ea7f 5c6c 	mvns.w	ip, ip, asr #21
 800475c:	d102      	bne.n	8004764 <__aeabi_dcmpun+0x10>
 800475e:	ea50 3c01 	orrs.w	ip, r0, r1, lsl #12
 8004762:	d10a      	bne.n	800477a <__aeabi_dcmpun+0x26>
 8004764:	ea4f 0c43 	mov.w	ip, r3, lsl #1
 8004768:	ea7f 5c6c 	mvns.w	ip, ip, asr #21
 800476c:	d102      	bne.n	8004774 <__aeabi_dcmpun+0x20>
 800476e:	ea52 3c03 	orrs.w	ip, r2, r3, lsl #12
 8004772:	d102      	bne.n	800477a <__aeabi_dcmpun+0x26>
 8004774:	f04f 0000 	mov.w	r0, #0
 8004778:	4770      	bx	lr
 800477a:	f04f 0001 	mov.w	r0, #1
 800477e:	4770      	bx	lr

08004780 <__aeabi_d2iz>:
 8004780:	ea4f 0241 	mov.w	r2, r1, lsl #1
 8004784:	f512 1200 	adds.w	r2, r2, #2097152	; 0x200000
 8004788:	d215      	bcs.n	80047b6 <__aeabi_d2iz+0x36>
 800478a:	d511      	bpl.n	80047b0 <__aeabi_d2iz+0x30>
 800478c:	f46f 7378 	mvn.w	r3, #992	; 0x3e0
 8004790:	ebb3 5262 	subs.w	r2, r3, r2, asr #21
 8004794:	d912      	bls.n	80047bc <__aeabi_d2iz+0x3c>
 8004796:	ea4f 23c1 	mov.w	r3, r1, lsl #11
 800479a:	f043 4300 	orr.w	r3, r3, #2147483648	; 0x80000000
 800479e:	ea43 5350 	orr.w	r3, r3, r0, lsr #21
 80047a2:	f011 4f00 	tst.w	r1, #2147483648	; 0x80000000
 80047a6:	fa23 f002 	lsr.w	r0, r3, r2
 80047aa:	bf18      	it	ne
 80047ac:	4240      	negne	r0, r0
 80047ae:	4770      	bx	lr
 80047b0:	f04f 0000 	mov.w	r0, #0
 80047b4:	4770      	bx	lr
 80047b6:	ea50 3001 	orrs.w	r0, r0, r1, lsl #12
 80047ba:	d105      	bne.n	80047c8 <__aeabi_d2iz+0x48>
 80047bc:	f011 4000 	ands.w	r0, r1, #2147483648	; 0x80000000
 80047c0:	bf08      	it	eq
 80047c2:	f06f 4000 	mvneq.w	r0, #2147483648	; 0x80000000
 80047c6:	4770      	bx	lr
 80047c8:	f04f 0000 	mov.w	r0, #0
 80047cc:	4770      	bx	lr
 80047ce:	bf00      	nop

080047d0 <__aeabi_d2uiz>:
 80047d0:	004a      	lsls	r2, r1, #1
 80047d2:	d211      	bcs.n	80047f8 <__aeabi_d2uiz+0x28>
 80047d4:	f512 1200 	adds.w	r2, r2, #2097152	; 0x200000
 80047d8:	d211      	bcs.n	80047fe <__aeabi_d2uiz+0x2e>
 80047da:	d50d      	bpl.n	80047f8 <__aeabi_d2uiz+0x28>
 80047dc:	f46f 7378 	mvn.w	r3, #992	; 0x3e0
 80047e0:	ebb3 5262 	subs.w	r2, r3, r2, asr #21
 80047e4:	d40e      	bmi.n	8004804 <__aeabi_d2uiz+0x34>
 80047e6:	ea4f 23c1 	mov.w	r3, r1, lsl #11
 80047ea:	f043 4300 	orr.w	r3, r3, #2147483648	; 0x80000000
 80047ee:	ea43 5350 	orr.w	r3, r3, r0, lsr #21
 80047f2:	fa23 f002 	lsr.w	r0, r3, r2
 80047f6:	4770      	bx	lr
 80047f8:	f04f 0000 	mov.w	r0, #0
 80047fc:	4770      	bx	lr
 80047fe:	ea50 3001 	orrs.w	r0, r0, r1, lsl #12
 8004802:	d102      	bne.n	800480a <__aeabi_d2uiz+0x3a>
 8004804:	f04f 30ff 	mov.w	r0, #4294967295
 8004808:	4770      	bx	lr
 800480a:	f04f 0000 	mov.w	r0, #0
 800480e:	4770      	bx	lr

08004810 <__errno>:
 8004810:	4b01      	ldr	r3, [pc, #4]	; (8004818 <__errno+0x8>)
 8004812:	6818      	ldr	r0, [r3, #0]
 8004814:	4770      	bx	lr
 8004816:	bf00      	nop
 8004818:	20000458 	.word	0x20000458

0800481c <memcpy>:
 800481c:	4684      	mov	ip, r0
 800481e:	ea41 0300 	orr.w	r3, r1, r0
 8004822:	f013 0303 	ands.w	r3, r3, #3
 8004826:	d16d      	bne.n	8004904 <memcpy+0xe8>
 8004828:	3a40      	subs	r2, #64	; 0x40
 800482a:	d341      	bcc.n	80048b0 <memcpy+0x94>
 800482c:	f851 3b04 	ldr.w	r3, [r1], #4
 8004830:	f840 3b04 	str.w	r3, [r0], #4
 8004834:	f851 3b04 	ldr.w	r3, [r1], #4
 8004838:	f840 3b04 	str.w	r3, [r0], #4
 800483c:	f851 3b04 	ldr.w	r3, [r1], #4
 8004840:	f840 3b04 	str.w	r3, [r0], #4
 8004844:	f851 3b04 	ldr.w	r3, [r1], #4
 8004848:	f840 3b04 	str.w	r3, [r0], #4
 800484c:	f851 3b04 	ldr.w	r3, [r1], #4
 8004850:	f840 3b04 	str.w	r3, [r0], #4
 8004854:	f851 3b04 	ldr.w	r3, [r1], #4
 8004858:	f840 3b04 	str.w	r3, [r0], #4
 800485c:	f851 3b04 	ldr.w	r3, [r1], #4
 8004860:	f840 3b04 	str.w	r3, [r0], #4
 8004864:	f851 3b04 	ldr.w	r3, [r1], #4
 8004868:	f840 3b04 	str.w	r3, [r0], #4
 800486c:	f851 3b04 	ldr.w	r3, [r1], #4
 8004870:	f840 3b04 	str.w	r3, [r0], #4
 8004874:	f851 3b04 	ldr.w	r3, [r1], #4
 8004878:	f840 3b04 	str.w	r3, [r0], #4
 800487c:	f851 3b04 	ldr.w	r3, [r1], #4
 8004880:	f840 3b04 	str.w	r3, [r0], #4
 8004884:	f851 3b04 	ldr.w	r3, [r1], #4
 8004888:	f840 3b04 	str.w	r3, [r0], #4
 800488c:	f851 3b04 	ldr.w	r3, [r1], #4
 8004890:	f840 3b04 	str.w	r3, [r0], #4
 8004894:	f851 3b04 	ldr.w	r3, [r1], #4
 8004898:	f840 3b04 	str.w	r3, [r0], #4
 800489c:	f851 3b04 	ldr.w	r3, [r1], #4
 80048a0:	f840 3b04 	str.w	r3, [r0], #4
 80048a4:	f851 3b04 	ldr.w	r3, [r1], #4
 80048a8:	f840 3b04 	str.w	r3, [r0], #4
 80048ac:	3a40      	subs	r2, #64	; 0x40
 80048ae:	d2bd      	bcs.n	800482c <memcpy+0x10>
 80048b0:	3230      	adds	r2, #48	; 0x30
 80048b2:	d311      	bcc.n	80048d8 <memcpy+0xbc>
 80048b4:	f851 3b04 	ldr.w	r3, [r1], #4
 80048b8:	f840 3b04 	str.w	r3, [r0], #4
 80048bc:	f851 3b04 	ldr.w	r3, [r1], #4
 80048c0:	f840 3b04 	str.w	r3, [r0], #4
 80048c4:	f851 3b04 	ldr.w	r3, [r1], #4
 80048c8:	f840 3b04 	str.w	r3, [r0], #4
 80048cc:	f851 3b04 	ldr.w	r3, [r1], #4
 80048d0:	f840 3b04 	str.w	r3, [r0], #4
 80048d4:	3a10      	subs	r2, #16
 80048d6:	d2ed      	bcs.n	80048b4 <memcpy+0x98>
 80048d8:	320c      	adds	r2, #12
 80048da:	d305      	bcc.n	80048e8 <memcpy+0xcc>
 80048dc:	f851 3b04 	ldr.w	r3, [r1], #4
 80048e0:	f840 3b04 	str.w	r3, [r0], #4
 80048e4:	3a04      	subs	r2, #4
 80048e6:	d2f9      	bcs.n	80048dc <memcpy+0xc0>
 80048e8:	3204      	adds	r2, #4
 80048ea:	d008      	beq.n	80048fe <memcpy+0xe2>
 80048ec:	07d2      	lsls	r2, r2, #31
 80048ee:	bf1c      	itt	ne
 80048f0:	f811 3b01 	ldrbne.w	r3, [r1], #1
 80048f4:	f800 3b01 	strbne.w	r3, [r0], #1
 80048f8:	d301      	bcc.n	80048fe <memcpy+0xe2>
 80048fa:	880b      	ldrh	r3, [r1, #0]
 80048fc:	8003      	strh	r3, [r0, #0]
 80048fe:	4660      	mov	r0, ip
 8004900:	4770      	bx	lr
 8004902:	bf00      	nop
 8004904:	2a08      	cmp	r2, #8
 8004906:	d313      	bcc.n	8004930 <memcpy+0x114>
 8004908:	078b      	lsls	r3, r1, #30
 800490a:	d08d      	beq.n	8004828 <memcpy+0xc>
 800490c:	f010 0303 	ands.w	r3, r0, #3
 8004910:	d08a      	beq.n	8004828 <memcpy+0xc>
 8004912:	f1c3 0304 	rsb	r3, r3, #4
 8004916:	1ad2      	subs	r2, r2, r3
 8004918:	07db      	lsls	r3, r3, #31
 800491a:	bf1c      	itt	ne
 800491c:	f811 3b01 	ldrbne.w	r3, [r1], #1
 8004920:	f800 3b01 	strbne.w	r3, [r0], #1
 8004924:	d380      	bcc.n	8004828 <memcpy+0xc>
 8004926:	f831 3b02 	ldrh.w	r3, [r1], #2
 800492a:	f820 3b02 	strh.w	r3, [r0], #2
 800492e:	e77b      	b.n	8004828 <memcpy+0xc>
 8004930:	3a04      	subs	r2, #4
 8004932:	d3d9      	bcc.n	80048e8 <memcpy+0xcc>
 8004934:	3a01      	subs	r2, #1
 8004936:	f811 3b01 	ldrb.w	r3, [r1], #1
 800493a:	f800 3b01 	strb.w	r3, [r0], #1
 800493e:	d2f9      	bcs.n	8004934 <memcpy+0x118>
 8004940:	780b      	ldrb	r3, [r1, #0]
 8004942:	7003      	strb	r3, [r0, #0]
 8004944:	784b      	ldrb	r3, [r1, #1]
 8004946:	7043      	strb	r3, [r0, #1]
 8004948:	788b      	ldrb	r3, [r1, #2]
 800494a:	7083      	strb	r3, [r0, #2]
 800494c:	4660      	mov	r0, ip
 800494e:	4770      	bx	lr

08004950 <memset>:
 8004950:	b470      	push	{r4, r5, r6}
 8004952:	0784      	lsls	r4, r0, #30
 8004954:	d046      	beq.n	80049e4 <memset+0x94>
 8004956:	1e54      	subs	r4, r2, #1
 8004958:	2a00      	cmp	r2, #0
 800495a:	d041      	beq.n	80049e0 <memset+0x90>
 800495c:	b2cd      	uxtb	r5, r1
 800495e:	4603      	mov	r3, r0
 8004960:	e002      	b.n	8004968 <memset+0x18>
 8004962:	1e62      	subs	r2, r4, #1
 8004964:	b3e4      	cbz	r4, 80049e0 <memset+0x90>
 8004966:	4614      	mov	r4, r2
 8004968:	f803 5b01 	strb.w	r5, [r3], #1
 800496c:	079a      	lsls	r2, r3, #30
 800496e:	d1f8      	bne.n	8004962 <memset+0x12>
 8004970:	2c03      	cmp	r4, #3
 8004972:	d92e      	bls.n	80049d2 <memset+0x82>
 8004974:	b2cd      	uxtb	r5, r1
 8004976:	ea45 2505 	orr.w	r5, r5, r5, lsl #8
 800497a:	2c0f      	cmp	r4, #15
 800497c:	ea45 4505 	orr.w	r5, r5, r5, lsl #16
 8004980:	d919      	bls.n	80049b6 <memset+0x66>
 8004982:	f103 0210 	add.w	r2, r3, #16
 8004986:	4626      	mov	r6, r4
 8004988:	3e10      	subs	r6, #16
 800498a:	2e0f      	cmp	r6, #15
 800498c:	f842 5c10 	str.w	r5, [r2, #-16]
 8004990:	f842 5c0c 	str.w	r5, [r2, #-12]
 8004994:	f842 5c08 	str.w	r5, [r2, #-8]
 8004998:	f842 5c04 	str.w	r5, [r2, #-4]
 800499c:	f102 0210 	add.w	r2, r2, #16
 80049a0:	d8f2      	bhi.n	8004988 <memset+0x38>
 80049a2:	f1a4 0210 	sub.w	r2, r4, #16
 80049a6:	f022 020f 	bic.w	r2, r2, #15
 80049aa:	f004 040f 	and.w	r4, r4, #15
 80049ae:	3210      	adds	r2, #16
 80049b0:	2c03      	cmp	r4, #3
 80049b2:	4413      	add	r3, r2
 80049b4:	d90d      	bls.n	80049d2 <memset+0x82>
 80049b6:	461e      	mov	r6, r3
 80049b8:	4622      	mov	r2, r4
 80049ba:	3a04      	subs	r2, #4
 80049bc:	2a03      	cmp	r2, #3
 80049be:	f846 5b04 	str.w	r5, [r6], #4
 80049c2:	d8fa      	bhi.n	80049ba <memset+0x6a>
 80049c4:	1f22      	subs	r2, r4, #4
 80049c6:	f022 0203 	bic.w	r2, r2, #3
 80049ca:	3204      	adds	r2, #4
 80049cc:	4413      	add	r3, r2
 80049ce:	f004 0403 	and.w	r4, r4, #3
 80049d2:	b12c      	cbz	r4, 80049e0 <memset+0x90>
 80049d4:	b2c9      	uxtb	r1, r1
 80049d6:	441c      	add	r4, r3
 80049d8:	f803 1b01 	strb.w	r1, [r3], #1
 80049dc:	42a3      	cmp	r3, r4
 80049de:	d1fb      	bne.n	80049d8 <memset+0x88>
 80049e0:	bc70      	pop	{r4, r5, r6}
 80049e2:	4770      	bx	lr
 80049e4:	4614      	mov	r4, r2
 80049e6:	4603      	mov	r3, r0
 80049e8:	e7c2      	b.n	8004970 <memset+0x20>
 80049ea:	bf00      	nop

080049ec <cleanup_glue>:
 80049ec:	b538      	push	{r3, r4, r5, lr}
 80049ee:	460c      	mov	r4, r1
 80049f0:	6809      	ldr	r1, [r1, #0]
 80049f2:	4605      	mov	r5, r0
 80049f4:	b109      	cbz	r1, 80049fa <cleanup_glue+0xe>
 80049f6:	f7ff fff9 	bl	80049ec <cleanup_glue>
 80049fa:	4621      	mov	r1, r4
 80049fc:	4628      	mov	r0, r5
 80049fe:	e8bd 4038 	ldmia.w	sp!, {r3, r4, r5, lr}
 8004a02:	f000 b8e3 	b.w	8004bcc <_free_r>
 8004a06:	bf00      	nop

08004a08 <_reclaim_reent>:
 8004a08:	4b20      	ldr	r3, [pc, #128]	; (8004a8c <_reclaim_reent+0x84>)
 8004a0a:	681b      	ldr	r3, [r3, #0]
 8004a0c:	4283      	cmp	r3, r0
 8004a0e:	d03c      	beq.n	8004a8a <_reclaim_reent+0x82>
 8004a10:	6cc3      	ldr	r3, [r0, #76]	; 0x4c
 8004a12:	b570      	push	{r4, r5, r6, lr}
 8004a14:	4605      	mov	r5, r0
 8004a16:	b18b      	cbz	r3, 8004a3c <_reclaim_reent+0x34>
 8004a18:	2600      	movs	r6, #0
 8004a1a:	5999      	ldr	r1, [r3, r6]
 8004a1c:	b139      	cbz	r1, 8004a2e <_reclaim_reent+0x26>
 8004a1e:	680c      	ldr	r4, [r1, #0]
 8004a20:	4628      	mov	r0, r5
 8004a22:	f000 f8d3 	bl	8004bcc <_free_r>
 8004a26:	4621      	mov	r1, r4
 8004a28:	2c00      	cmp	r4, #0
 8004a2a:	d1f8      	bne.n	8004a1e <_reclaim_reent+0x16>
 8004a2c:	6ceb      	ldr	r3, [r5, #76]	; 0x4c
 8004a2e:	3604      	adds	r6, #4
 8004a30:	2e80      	cmp	r6, #128	; 0x80
 8004a32:	d1f2      	bne.n	8004a1a <_reclaim_reent+0x12>
 8004a34:	4619      	mov	r1, r3
 8004a36:	4628      	mov	r0, r5
 8004a38:	f000 f8c8 	bl	8004bcc <_free_r>
 8004a3c:	6c29      	ldr	r1, [r5, #64]	; 0x40
 8004a3e:	b111      	cbz	r1, 8004a46 <_reclaim_reent+0x3e>
 8004a40:	4628      	mov	r0, r5
 8004a42:	f000 f8c3 	bl	8004bcc <_free_r>
 8004a46:	f8d5 1148 	ldr.w	r1, [r5, #328]	; 0x148
 8004a4a:	b151      	cbz	r1, 8004a62 <_reclaim_reent+0x5a>
 8004a4c:	f505 76a6 	add.w	r6, r5, #332	; 0x14c
 8004a50:	42b1      	cmp	r1, r6
 8004a52:	d006      	beq.n	8004a62 <_reclaim_reent+0x5a>
 8004a54:	680c      	ldr	r4, [r1, #0]
 8004a56:	4628      	mov	r0, r5
 8004a58:	f000 f8b8 	bl	8004bcc <_free_r>
 8004a5c:	42a6      	cmp	r6, r4
 8004a5e:	4621      	mov	r1, r4
 8004a60:	d1f8      	bne.n	8004a54 <_reclaim_reent+0x4c>
 8004a62:	6d69      	ldr	r1, [r5, #84]	; 0x54
 8004a64:	b111      	cbz	r1, 8004a6c <_reclaim_reent+0x64>
 8004a66:	4628      	mov	r0, r5
 8004a68:	f000 f8b0 	bl	8004bcc <_free_r>
 8004a6c:	6bab      	ldr	r3, [r5, #56]	; 0x38
 8004a6e:	b903      	cbnz	r3, 8004a72 <_reclaim_reent+0x6a>
 8004a70:	bd70      	pop	{r4, r5, r6, pc}
 8004a72:	6beb      	ldr	r3, [r5, #60]	; 0x3c
 8004a74:	4628      	mov	r0, r5
 8004a76:	4798      	blx	r3
 8004a78:	f8d5 12e0 	ldr.w	r1, [r5, #736]	; 0x2e0
 8004a7c:	2900      	cmp	r1, #0
 8004a7e:	d0f7      	beq.n	8004a70 <_reclaim_reent+0x68>
 8004a80:	4628      	mov	r0, r5
 8004a82:	e8bd 4070 	ldmia.w	sp!, {r4, r5, r6, lr}
 8004a86:	f7ff bfb1 	b.w	80049ec <cleanup_glue>
 8004a8a:	4770      	bx	lr
 8004a8c:	20000458 	.word	0x20000458

08004a90 <strncmp>:
 8004a90:	2a00      	cmp	r2, #0
 8004a92:	d041      	beq.n	8004b18 <strncmp+0x88>
 8004a94:	ea40 0301 	orr.w	r3, r0, r1
 8004a98:	f013 0303 	ands.w	r3, r3, #3
 8004a9c:	b4f0      	push	{r4, r5, r6, r7}
 8004a9e:	d125      	bne.n	8004aec <strncmp+0x5c>
 8004aa0:	2a03      	cmp	r2, #3
 8004aa2:	d923      	bls.n	8004aec <strncmp+0x5c>
 8004aa4:	6804      	ldr	r4, [r0, #0]
 8004aa6:	680d      	ldr	r5, [r1, #0]
 8004aa8:	42ac      	cmp	r4, r5
 8004aaa:	d11f      	bne.n	8004aec <strncmp+0x5c>
 8004aac:	3a04      	subs	r2, #4
 8004aae:	d035      	beq.n	8004b1c <strncmp+0x8c>
 8004ab0:	f1a4 3501 	sub.w	r5, r4, #16843009	; 0x1010101
 8004ab4:	ea25 0404 	bic.w	r4, r5, r4
 8004ab8:	f014 3f80 	tst.w	r4, #2155905152	; 0x80808080
 8004abc:	d131      	bne.n	8004b22 <strncmp+0x92>
 8004abe:	1d07      	adds	r7, r0, #4
 8004ac0:	1d0d      	adds	r5, r1, #4
 8004ac2:	e00d      	b.n	8004ae0 <strncmp+0x50>
 8004ac4:	f857 3b04 	ldr.w	r3, [r7], #4
 8004ac8:	680e      	ldr	r6, [r1, #0]
 8004aca:	f1a3 3401 	sub.w	r4, r3, #16843009	; 0x1010101
 8004ace:	42b3      	cmp	r3, r6
 8004ad0:	ea24 0403 	bic.w	r4, r4, r3
 8004ad4:	d10a      	bne.n	8004aec <strncmp+0x5c>
 8004ad6:	3a04      	subs	r2, #4
 8004ad8:	d020      	beq.n	8004b1c <strncmp+0x8c>
 8004ada:	f014 3f80 	tst.w	r4, #2155905152	; 0x80808080
 8004ade:	d123      	bne.n	8004b28 <strncmp+0x98>
 8004ae0:	2a03      	cmp	r2, #3
 8004ae2:	4629      	mov	r1, r5
 8004ae4:	4638      	mov	r0, r7
 8004ae6:	f105 0504 	add.w	r5, r5, #4
 8004aea:	d8eb      	bhi.n	8004ac4 <strncmp+0x34>
 8004aec:	7803      	ldrb	r3, [r0, #0]
 8004aee:	780c      	ldrb	r4, [r1, #0]
 8004af0:	429c      	cmp	r4, r3
 8004af2:	f102 32ff 	add.w	r2, r2, #4294967295
 8004af6:	d10c      	bne.n	8004b12 <strncmp+0x82>
 8004af8:	b182      	cbz	r2, 8004b1c <strncmp+0x8c>
 8004afa:	b914      	cbnz	r4, 8004b02 <strncmp+0x72>
 8004afc:	e016      	b.n	8004b2c <strncmp+0x9c>
 8004afe:	b16a      	cbz	r2, 8004b1c <strncmp+0x8c>
 8004b00:	b17b      	cbz	r3, 8004b22 <strncmp+0x92>
 8004b02:	f810 3f01 	ldrb.w	r3, [r0, #1]!
 8004b06:	f811 4f01 	ldrb.w	r4, [r1, #1]!
 8004b0a:	42a3      	cmp	r3, r4
 8004b0c:	f102 32ff 	add.w	r2, r2, #4294967295
 8004b10:	d0f5      	beq.n	8004afe <strncmp+0x6e>
 8004b12:	1b18      	subs	r0, r3, r4
 8004b14:	bcf0      	pop	{r4, r5, r6, r7}
 8004b16:	4770      	bx	lr
 8004b18:	4610      	mov	r0, r2
 8004b1a:	4770      	bx	lr
 8004b1c:	4610      	mov	r0, r2
 8004b1e:	bcf0      	pop	{r4, r5, r6, r7}
 8004b20:	4770      	bx	lr
 8004b22:	4618      	mov	r0, r3
 8004b24:	bcf0      	pop	{r4, r5, r6, r7}
 8004b26:	4770      	bx	lr
 8004b28:	2000      	movs	r0, #0
 8004b2a:	e7f3      	b.n	8004b14 <strncmp+0x84>
 8004b2c:	4620      	mov	r0, r4
 8004b2e:	e7f1      	b.n	8004b14 <strncmp+0x84>

08004b30 <_malloc_trim_r>:
 8004b30:	b5f8      	push	{r3, r4, r5, r6, r7, lr}
 8004b32:	4f23      	ldr	r7, [pc, #140]	; (8004bc0 <_malloc_trim_r+0x90>)
 8004b34:	460c      	mov	r4, r1
 8004b36:	4606      	mov	r6, r0
 8004b38:	f000 fbe8 	bl	800530c <__malloc_lock>
 8004b3c:	68bb      	ldr	r3, [r7, #8]
 8004b3e:	685d      	ldr	r5, [r3, #4]
 8004b40:	f025 0503 	bic.w	r5, r5, #3
 8004b44:	1b29      	subs	r1, r5, r4
 8004b46:	f601 71ef 	addw	r1, r1, #4079	; 0xfef
 8004b4a:	f421 617f 	bic.w	r1, r1, #4080	; 0xff0
 8004b4e:	f021 010f 	bic.w	r1, r1, #15
 8004b52:	f5a1 5480 	sub.w	r4, r1, #4096	; 0x1000
 8004b56:	f5b4 5f80 	cmp.w	r4, #4096	; 0x1000
 8004b5a:	db07      	blt.n	8004b6c <_malloc_trim_r+0x3c>
 8004b5c:	2100      	movs	r1, #0
 8004b5e:	4630      	mov	r0, r6
 8004b60:	f000 fbd8 	bl	8005314 <_sbrk_r>
 8004b64:	68bb      	ldr	r3, [r7, #8]
 8004b66:	442b      	add	r3, r5
 8004b68:	4298      	cmp	r0, r3
 8004b6a:	d004      	beq.n	8004b76 <_malloc_trim_r+0x46>
 8004b6c:	4630      	mov	r0, r6
 8004b6e:	f000 fbcf 	bl	8005310 <__malloc_unlock>
 8004b72:	2000      	movs	r0, #0
 8004b74:	bdf8      	pop	{r3, r4, r5, r6, r7, pc}
 8004b76:	4261      	negs	r1, r4
 8004b78:	4630      	mov	r0, r6
 8004b7a:	f000 fbcb 	bl	8005314 <_sbrk_r>
 8004b7e:	3001      	adds	r0, #1
 8004b80:	d00d      	beq.n	8004b9e <_malloc_trim_r+0x6e>
 8004b82:	4b10      	ldr	r3, [pc, #64]	; (8004bc4 <_malloc_trim_r+0x94>)
 8004b84:	68ba      	ldr	r2, [r7, #8]
 8004b86:	6819      	ldr	r1, [r3, #0]
 8004b88:	1b2d      	subs	r5, r5, r4
 8004b8a:	f045 0501 	orr.w	r5, r5, #1
 8004b8e:	4630      	mov	r0, r6
 8004b90:	1b09      	subs	r1, r1, r4
 8004b92:	6055      	str	r5, [r2, #4]
 8004b94:	6019      	str	r1, [r3, #0]
 8004b96:	f000 fbbb 	bl	8005310 <__malloc_unlock>
 8004b9a:	2001      	movs	r0, #1
 8004b9c:	bdf8      	pop	{r3, r4, r5, r6, r7, pc}
 8004b9e:	2100      	movs	r1, #0
 8004ba0:	4630      	mov	r0, r6
 8004ba2:	f000 fbb7 	bl	8005314 <_sbrk_r>
 8004ba6:	68ba      	ldr	r2, [r7, #8]
 8004ba8:	1a83      	subs	r3, r0, r2
 8004baa:	2b0f      	cmp	r3, #15
 8004bac:	ddde      	ble.n	8004b6c <_malloc_trim_r+0x3c>
 8004bae:	4c06      	ldr	r4, [pc, #24]	; (8004bc8 <_malloc_trim_r+0x98>)
 8004bb0:	4904      	ldr	r1, [pc, #16]	; (8004bc4 <_malloc_trim_r+0x94>)
 8004bb2:	6824      	ldr	r4, [r4, #0]
 8004bb4:	f043 0301 	orr.w	r3, r3, #1
 8004bb8:	1b00      	subs	r0, r0, r4
 8004bba:	6053      	str	r3, [r2, #4]
 8004bbc:	6008      	str	r0, [r1, #0]
 8004bbe:	e7d5      	b.n	8004b6c <_malloc_trim_r+0x3c>
 8004bc0:	2000045c 	.word	0x2000045c
 8004bc4:	200008e0 	.word	0x200008e0
 8004bc8:	20000868 	.word	0x20000868

08004bcc <_free_r>:
 8004bcc:	2900      	cmp	r1, #0
 8004bce:	d045      	beq.n	8004c5c <_free_r+0x90>
 8004bd0:	e92d 41f0 	stmdb	sp!, {r4, r5, r6, r7, r8, lr}
 8004bd4:	460d      	mov	r5, r1
 8004bd6:	4680      	mov	r8, r0
 8004bd8:	f000 fb98 	bl	800530c <__malloc_lock>
 8004bdc:	f855 7c04 	ldr.w	r7, [r5, #-4]
 8004be0:	496a      	ldr	r1, [pc, #424]	; (8004d8c <_free_r+0x1c0>)
 8004be2:	f027 0301 	bic.w	r3, r7, #1
 8004be6:	f1a5 0408 	sub.w	r4, r5, #8
 8004bea:	18e2      	adds	r2, r4, r3
 8004bec:	688e      	ldr	r6, [r1, #8]
 8004bee:	6850      	ldr	r0, [r2, #4]
 8004bf0:	42b2      	cmp	r2, r6
 8004bf2:	f020 0003 	bic.w	r0, r0, #3
 8004bf6:	d062      	beq.n	8004cbe <_free_r+0xf2>
 8004bf8:	07fe      	lsls	r6, r7, #31
 8004bfa:	6050      	str	r0, [r2, #4]
 8004bfc:	d40b      	bmi.n	8004c16 <_free_r+0x4a>
 8004bfe:	f855 7c08 	ldr.w	r7, [r5, #-8]
 8004c02:	1be4      	subs	r4, r4, r7
 8004c04:	f101 0e08 	add.w	lr, r1, #8
 8004c08:	68a5      	ldr	r5, [r4, #8]
 8004c0a:	4575      	cmp	r5, lr
 8004c0c:	443b      	add	r3, r7
 8004c0e:	d06f      	beq.n	8004cf0 <_free_r+0x124>
 8004c10:	68e7      	ldr	r7, [r4, #12]
 8004c12:	60ef      	str	r7, [r5, #12]
 8004c14:	60bd      	str	r5, [r7, #8]
 8004c16:	1815      	adds	r5, r2, r0
 8004c18:	686d      	ldr	r5, [r5, #4]
 8004c1a:	07ed      	lsls	r5, r5, #31
 8004c1c:	d542      	bpl.n	8004ca4 <_free_r+0xd8>
 8004c1e:	f043 0201 	orr.w	r2, r3, #1
 8004c22:	6062      	str	r2, [r4, #4]
 8004c24:	50e3      	str	r3, [r4, r3]
 8004c26:	f5b3 7f00 	cmp.w	r3, #512	; 0x200
 8004c2a:	d218      	bcs.n	8004c5e <_free_r+0x92>
 8004c2c:	08db      	lsrs	r3, r3, #3
 8004c2e:	1c5a      	adds	r2, r3, #1
 8004c30:	684d      	ldr	r5, [r1, #4]
 8004c32:	f851 7032 	ldr.w	r7, [r1, r2, lsl #3]
 8004c36:	60a7      	str	r7, [r4, #8]
 8004c38:	2001      	movs	r0, #1
 8004c3a:	109b      	asrs	r3, r3, #2
 8004c3c:	fa00 f303 	lsl.w	r3, r0, r3
 8004c40:	eb01 00c2 	add.w	r0, r1, r2, lsl #3
 8004c44:	431d      	orrs	r5, r3
 8004c46:	3808      	subs	r0, #8
 8004c48:	60e0      	str	r0, [r4, #12]
 8004c4a:	604d      	str	r5, [r1, #4]
 8004c4c:	f841 4032 	str.w	r4, [r1, r2, lsl #3]
 8004c50:	60fc      	str	r4, [r7, #12]
 8004c52:	4640      	mov	r0, r8
 8004c54:	e8bd 41f0 	ldmia.w	sp!, {r4, r5, r6, r7, r8, lr}
 8004c58:	f000 bb5a 	b.w	8005310 <__malloc_unlock>
 8004c5c:	4770      	bx	lr
 8004c5e:	0a5a      	lsrs	r2, r3, #9
 8004c60:	2a04      	cmp	r2, #4
 8004c62:	d853      	bhi.n	8004d0c <_free_r+0x140>
 8004c64:	099a      	lsrs	r2, r3, #6
 8004c66:	f102 0739 	add.w	r7, r2, #57	; 0x39
 8004c6a:	007f      	lsls	r7, r7, #1
 8004c6c:	f102 0538 	add.w	r5, r2, #56	; 0x38
 8004c70:	eb01 0087 	add.w	r0, r1, r7, lsl #2
 8004c74:	f851 2027 	ldr.w	r2, [r1, r7, lsl #2]
 8004c78:	4944      	ldr	r1, [pc, #272]	; (8004d8c <_free_r+0x1c0>)
 8004c7a:	3808      	subs	r0, #8
 8004c7c:	4290      	cmp	r0, r2
 8004c7e:	d04d      	beq.n	8004d1c <_free_r+0x150>
 8004c80:	6851      	ldr	r1, [r2, #4]
 8004c82:	f021 0103 	bic.w	r1, r1, #3
 8004c86:	428b      	cmp	r3, r1
 8004c88:	d202      	bcs.n	8004c90 <_free_r+0xc4>
 8004c8a:	6892      	ldr	r2, [r2, #8]
 8004c8c:	4290      	cmp	r0, r2
 8004c8e:	d1f7      	bne.n	8004c80 <_free_r+0xb4>
 8004c90:	68d0      	ldr	r0, [r2, #12]
 8004c92:	60e0      	str	r0, [r4, #12]
 8004c94:	60a2      	str	r2, [r4, #8]
 8004c96:	6084      	str	r4, [r0, #8]
 8004c98:	60d4      	str	r4, [r2, #12]
 8004c9a:	4640      	mov	r0, r8
 8004c9c:	e8bd 41f0 	ldmia.w	sp!, {r4, r5, r6, r7, r8, lr}
 8004ca0:	f000 bb36 	b.w	8005310 <__malloc_unlock>
 8004ca4:	6895      	ldr	r5, [r2, #8]
 8004ca6:	4f3a      	ldr	r7, [pc, #232]	; (8004d90 <_free_r+0x1c4>)
 8004ca8:	42bd      	cmp	r5, r7
 8004caa:	4403      	add	r3, r0
 8004cac:	d03f      	beq.n	8004d2e <_free_r+0x162>
 8004cae:	68d0      	ldr	r0, [r2, #12]
 8004cb0:	60e8      	str	r0, [r5, #12]
 8004cb2:	f043 0201 	orr.w	r2, r3, #1
 8004cb6:	6085      	str	r5, [r0, #8]
 8004cb8:	6062      	str	r2, [r4, #4]
 8004cba:	50e3      	str	r3, [r4, r3]
 8004cbc:	e7b3      	b.n	8004c26 <_free_r+0x5a>
 8004cbe:	07ff      	lsls	r7, r7, #31
 8004cc0:	4403      	add	r3, r0
 8004cc2:	d407      	bmi.n	8004cd4 <_free_r+0x108>
 8004cc4:	f855 2c08 	ldr.w	r2, [r5, #-8]
 8004cc8:	1aa4      	subs	r4, r4, r2
 8004cca:	4413      	add	r3, r2
 8004ccc:	68a0      	ldr	r0, [r4, #8]
 8004cce:	68e2      	ldr	r2, [r4, #12]
 8004cd0:	60c2      	str	r2, [r0, #12]
 8004cd2:	6090      	str	r0, [r2, #8]
 8004cd4:	4a2f      	ldr	r2, [pc, #188]	; (8004d94 <_free_r+0x1c8>)
 8004cd6:	6812      	ldr	r2, [r2, #0]
 8004cd8:	f043 0001 	orr.w	r0, r3, #1
 8004cdc:	4293      	cmp	r3, r2
 8004cde:	6060      	str	r0, [r4, #4]
 8004ce0:	608c      	str	r4, [r1, #8]
 8004ce2:	d3b6      	bcc.n	8004c52 <_free_r+0x86>
 8004ce4:	4b2c      	ldr	r3, [pc, #176]	; (8004d98 <_free_r+0x1cc>)
 8004ce6:	4640      	mov	r0, r8
 8004ce8:	6819      	ldr	r1, [r3, #0]
 8004cea:	f7ff ff21 	bl	8004b30 <_malloc_trim_r>
 8004cee:	e7b0      	b.n	8004c52 <_free_r+0x86>
 8004cf0:	1811      	adds	r1, r2, r0
 8004cf2:	6849      	ldr	r1, [r1, #4]
 8004cf4:	07c9      	lsls	r1, r1, #31
 8004cf6:	d444      	bmi.n	8004d82 <_free_r+0x1b6>
 8004cf8:	6891      	ldr	r1, [r2, #8]
 8004cfa:	68d2      	ldr	r2, [r2, #12]
 8004cfc:	60ca      	str	r2, [r1, #12]
 8004cfe:	4403      	add	r3, r0
 8004d00:	f043 0001 	orr.w	r0, r3, #1
 8004d04:	6091      	str	r1, [r2, #8]
 8004d06:	6060      	str	r0, [r4, #4]
 8004d08:	50e3      	str	r3, [r4, r3]
 8004d0a:	e7a2      	b.n	8004c52 <_free_r+0x86>
 8004d0c:	2a14      	cmp	r2, #20
 8004d0e:	d817      	bhi.n	8004d40 <_free_r+0x174>
 8004d10:	f102 075c 	add.w	r7, r2, #92	; 0x5c
 8004d14:	007f      	lsls	r7, r7, #1
 8004d16:	f102 055b 	add.w	r5, r2, #91	; 0x5b
 8004d1a:	e7a9      	b.n	8004c70 <_free_r+0xa4>
 8004d1c:	10aa      	asrs	r2, r5, #2
 8004d1e:	684b      	ldr	r3, [r1, #4]
 8004d20:	2501      	movs	r5, #1
 8004d22:	fa05 f202 	lsl.w	r2, r5, r2
 8004d26:	4313      	orrs	r3, r2
 8004d28:	604b      	str	r3, [r1, #4]
 8004d2a:	4602      	mov	r2, r0
 8004d2c:	e7b1      	b.n	8004c92 <_free_r+0xc6>
 8004d2e:	f043 0201 	orr.w	r2, r3, #1
 8004d32:	614c      	str	r4, [r1, #20]
 8004d34:	610c      	str	r4, [r1, #16]
 8004d36:	60e5      	str	r5, [r4, #12]
 8004d38:	60a5      	str	r5, [r4, #8]
 8004d3a:	6062      	str	r2, [r4, #4]
 8004d3c:	50e3      	str	r3, [r4, r3]
 8004d3e:	e788      	b.n	8004c52 <_free_r+0x86>
 8004d40:	2a54      	cmp	r2, #84	; 0x54
 8004d42:	d806      	bhi.n	8004d52 <_free_r+0x186>
 8004d44:	0b1a      	lsrs	r2, r3, #12
 8004d46:	f102 076f 	add.w	r7, r2, #111	; 0x6f
 8004d4a:	007f      	lsls	r7, r7, #1
 8004d4c:	f102 056e 	add.w	r5, r2, #110	; 0x6e
 8004d50:	e78e      	b.n	8004c70 <_free_r+0xa4>
 8004d52:	f5b2 7faa 	cmp.w	r2, #340	; 0x154
 8004d56:	d806      	bhi.n	8004d66 <_free_r+0x19a>
 8004d58:	0bda      	lsrs	r2, r3, #15
 8004d5a:	f102 0778 	add.w	r7, r2, #120	; 0x78
 8004d5e:	007f      	lsls	r7, r7, #1
 8004d60:	f102 0577 	add.w	r5, r2, #119	; 0x77
 8004d64:	e784      	b.n	8004c70 <_free_r+0xa4>
 8004d66:	f240 5054 	movw	r0, #1364	; 0x554
 8004d6a:	4282      	cmp	r2, r0
 8004d6c:	d806      	bhi.n	8004d7c <_free_r+0x1b0>
 8004d6e:	0c9a      	lsrs	r2, r3, #18
 8004d70:	f102 077d 	add.w	r7, r2, #125	; 0x7d
 8004d74:	007f      	lsls	r7, r7, #1
 8004d76:	f102 057c 	add.w	r5, r2, #124	; 0x7c
 8004d7a:	e779      	b.n	8004c70 <_free_r+0xa4>
 8004d7c:	27fe      	movs	r7, #254	; 0xfe
 8004d7e:	257e      	movs	r5, #126	; 0x7e
 8004d80:	e776      	b.n	8004c70 <_free_r+0xa4>
 8004d82:	f043 0201 	orr.w	r2, r3, #1
 8004d86:	6062      	str	r2, [r4, #4]
 8004d88:	50e3      	str	r3, [r4, r3]
 8004d8a:	e762      	b.n	8004c52 <_free_r+0x86>
 8004d8c:	2000045c 	.word	0x2000045c
 8004d90:	20000464 	.word	0x20000464
 8004d94:	20000864 	.word	0x20000864
 8004d98:	200008dc 	.word	0x200008dc

08004d9c <_malloc_r>:
 8004d9c:	e92d 4ff0 	stmdb	sp!, {r4, r5, r6, r7, r8, r9, sl, fp, lr}
 8004da0:	f101 050b 	add.w	r5, r1, #11
 8004da4:	2d16      	cmp	r5, #22
 8004da6:	b083      	sub	sp, #12
 8004da8:	4606      	mov	r6, r0
 8004daa:	f240 809f 	bls.w	8004eec <_malloc_r+0x150>
 8004dae:	f035 0507 	bics.w	r5, r5, #7
 8004db2:	f100 80bf 	bmi.w	8004f34 <_malloc_r+0x198>
 8004db6:	42a9      	cmp	r1, r5
 8004db8:	f200 80bc 	bhi.w	8004f34 <_malloc_r+0x198>
 8004dbc:	f000 faa6 	bl	800530c <__malloc_lock>
 8004dc0:	f5b5 7ffc 	cmp.w	r5, #504	; 0x1f8
 8004dc4:	f0c0 829c 	bcc.w	8005300 <_malloc_r+0x564>
 8004dc8:	0a6b      	lsrs	r3, r5, #9
 8004dca:	f000 80ba 	beq.w	8004f42 <_malloc_r+0x1a6>
 8004dce:	2b04      	cmp	r3, #4
 8004dd0:	f200 8183 	bhi.w	80050da <_malloc_r+0x33e>
 8004dd4:	09a8      	lsrs	r0, r5, #6
 8004dd6:	f100 0e39 	add.w	lr, r0, #57	; 0x39
 8004dda:	ea4f 034e 	mov.w	r3, lr, lsl #1
 8004dde:	3038      	adds	r0, #56	; 0x38
 8004de0:	4fc4      	ldr	r7, [pc, #784]	; (80050f4 <_malloc_r+0x358>)
 8004de2:	eb07 0383 	add.w	r3, r7, r3, lsl #2
 8004de6:	f1a3 0108 	sub.w	r1, r3, #8
 8004dea:	685c      	ldr	r4, [r3, #4]
 8004dec:	42a1      	cmp	r1, r4
 8004dee:	d107      	bne.n	8004e00 <_malloc_r+0x64>
 8004df0:	e0ac      	b.n	8004f4c <_malloc_r+0x1b0>
 8004df2:	2a00      	cmp	r2, #0
 8004df4:	f280 80ac 	bge.w	8004f50 <_malloc_r+0x1b4>
 8004df8:	68e4      	ldr	r4, [r4, #12]
 8004dfa:	42a1      	cmp	r1, r4
 8004dfc:	f000 80a6 	beq.w	8004f4c <_malloc_r+0x1b0>
 8004e00:	6863      	ldr	r3, [r4, #4]
 8004e02:	f023 0303 	bic.w	r3, r3, #3
 8004e06:	1b5a      	subs	r2, r3, r5
 8004e08:	2a0f      	cmp	r2, #15
 8004e0a:	ddf2      	ble.n	8004df2 <_malloc_r+0x56>
 8004e0c:	49b9      	ldr	r1, [pc, #740]	; (80050f4 <_malloc_r+0x358>)
 8004e0e:	693c      	ldr	r4, [r7, #16]
 8004e10:	f101 0e08 	add.w	lr, r1, #8
 8004e14:	4574      	cmp	r4, lr
 8004e16:	f000 81b3 	beq.w	8005180 <_malloc_r+0x3e4>
 8004e1a:	6863      	ldr	r3, [r4, #4]
 8004e1c:	f023 0303 	bic.w	r3, r3, #3
 8004e20:	1b5a      	subs	r2, r3, r5
 8004e22:	2a0f      	cmp	r2, #15
 8004e24:	f300 8199 	bgt.w	800515a <_malloc_r+0x3be>
 8004e28:	2a00      	cmp	r2, #0
 8004e2a:	f8c1 e014 	str.w	lr, [r1, #20]
 8004e2e:	f8c1 e010 	str.w	lr, [r1, #16]
 8004e32:	f280 809e 	bge.w	8004f72 <_malloc_r+0x1d6>
 8004e36:	f5b3 7f00 	cmp.w	r3, #512	; 0x200
 8004e3a:	f080 8167 	bcs.w	800510c <_malloc_r+0x370>
 8004e3e:	08db      	lsrs	r3, r3, #3
 8004e40:	f103 0c01 	add.w	ip, r3, #1
 8004e44:	2201      	movs	r2, #1
 8004e46:	109b      	asrs	r3, r3, #2
 8004e48:	fa02 f303 	lsl.w	r3, r2, r3
 8004e4c:	684a      	ldr	r2, [r1, #4]
 8004e4e:	f851 803c 	ldr.w	r8, [r1, ip, lsl #3]
 8004e52:	f8c4 8008 	str.w	r8, [r4, #8]
 8004e56:	eb01 09cc 	add.w	r9, r1, ip, lsl #3
 8004e5a:	431a      	orrs	r2, r3
 8004e5c:	f1a9 0308 	sub.w	r3, r9, #8
 8004e60:	60e3      	str	r3, [r4, #12]
 8004e62:	604a      	str	r2, [r1, #4]
 8004e64:	f841 403c 	str.w	r4, [r1, ip, lsl #3]
 8004e68:	f8c8 400c 	str.w	r4, [r8, #12]
 8004e6c:	1083      	asrs	r3, r0, #2
 8004e6e:	2401      	movs	r4, #1
 8004e70:	409c      	lsls	r4, r3
 8004e72:	4294      	cmp	r4, r2
 8004e74:	f200 808a 	bhi.w	8004f8c <_malloc_r+0x1f0>
 8004e78:	4214      	tst	r4, r2
 8004e7a:	d106      	bne.n	8004e8a <_malloc_r+0xee>
 8004e7c:	f020 0003 	bic.w	r0, r0, #3
 8004e80:	0064      	lsls	r4, r4, #1
 8004e82:	4214      	tst	r4, r2
 8004e84:	f100 0004 	add.w	r0, r0, #4
 8004e88:	d0fa      	beq.n	8004e80 <_malloc_r+0xe4>
 8004e8a:	eb07 09c0 	add.w	r9, r7, r0, lsl #3
 8004e8e:	46cc      	mov	ip, r9
 8004e90:	4680      	mov	r8, r0
 8004e92:	f8dc 100c 	ldr.w	r1, [ip, #12]
 8004e96:	458c      	cmp	ip, r1
 8004e98:	d107      	bne.n	8004eaa <_malloc_r+0x10e>
 8004e9a:	e173      	b.n	8005184 <_malloc_r+0x3e8>
 8004e9c:	2a00      	cmp	r2, #0
 8004e9e:	f280 8181 	bge.w	80051a4 <_malloc_r+0x408>
 8004ea2:	68c9      	ldr	r1, [r1, #12]
 8004ea4:	458c      	cmp	ip, r1
 8004ea6:	f000 816d 	beq.w	8005184 <_malloc_r+0x3e8>
 8004eaa:	684b      	ldr	r3, [r1, #4]
 8004eac:	f023 0303 	bic.w	r3, r3, #3
 8004eb0:	1b5a      	subs	r2, r3, r5
 8004eb2:	2a0f      	cmp	r2, #15
 8004eb4:	ddf2      	ble.n	8004e9c <_malloc_r+0x100>
 8004eb6:	460c      	mov	r4, r1
 8004eb8:	f8d1 c00c 	ldr.w	ip, [r1, #12]
 8004ebc:	f854 8f08 	ldr.w	r8, [r4, #8]!
 8004ec0:	194b      	adds	r3, r1, r5
 8004ec2:	f045 0501 	orr.w	r5, r5, #1
 8004ec6:	604d      	str	r5, [r1, #4]
 8004ec8:	f042 0101 	orr.w	r1, r2, #1
 8004ecc:	f8c8 c00c 	str.w	ip, [r8, #12]
 8004ed0:	4630      	mov	r0, r6
 8004ed2:	f8cc 8008 	str.w	r8, [ip, #8]
 8004ed6:	617b      	str	r3, [r7, #20]
 8004ed8:	613b      	str	r3, [r7, #16]
 8004eda:	f8c3 e00c 	str.w	lr, [r3, #12]
 8004ede:	f8c3 e008 	str.w	lr, [r3, #8]
 8004ee2:	6059      	str	r1, [r3, #4]
 8004ee4:	509a      	str	r2, [r3, r2]
 8004ee6:	f000 fa13 	bl	8005310 <__malloc_unlock>
 8004eea:	e01f      	b.n	8004f2c <_malloc_r+0x190>
 8004eec:	2910      	cmp	r1, #16
 8004eee:	d821      	bhi.n	8004f34 <_malloc_r+0x198>
 8004ef0:	f000 fa0c 	bl	800530c <__malloc_lock>
 8004ef4:	2510      	movs	r5, #16
 8004ef6:	2306      	movs	r3, #6
 8004ef8:	2002      	movs	r0, #2
 8004efa:	4f7e      	ldr	r7, [pc, #504]	; (80050f4 <_malloc_r+0x358>)
 8004efc:	eb07 0383 	add.w	r3, r7, r3, lsl #2
 8004f00:	f1a3 0208 	sub.w	r2, r3, #8
 8004f04:	685c      	ldr	r4, [r3, #4]
 8004f06:	4294      	cmp	r4, r2
 8004f08:	f000 8145 	beq.w	8005196 <_malloc_r+0x3fa>
 8004f0c:	6863      	ldr	r3, [r4, #4]
 8004f0e:	68e1      	ldr	r1, [r4, #12]
 8004f10:	68a5      	ldr	r5, [r4, #8]
 8004f12:	f023 0303 	bic.w	r3, r3, #3
 8004f16:	4423      	add	r3, r4
 8004f18:	4630      	mov	r0, r6
 8004f1a:	685a      	ldr	r2, [r3, #4]
 8004f1c:	60e9      	str	r1, [r5, #12]
 8004f1e:	f042 0201 	orr.w	r2, r2, #1
 8004f22:	608d      	str	r5, [r1, #8]
 8004f24:	605a      	str	r2, [r3, #4]
 8004f26:	f000 f9f3 	bl	8005310 <__malloc_unlock>
 8004f2a:	3408      	adds	r4, #8
 8004f2c:	4620      	mov	r0, r4
 8004f2e:	b003      	add	sp, #12
 8004f30:	e8bd 8ff0 	ldmia.w	sp!, {r4, r5, r6, r7, r8, r9, sl, fp, pc}
 8004f34:	2400      	movs	r4, #0
 8004f36:	230c      	movs	r3, #12
 8004f38:	4620      	mov	r0, r4
 8004f3a:	6033      	str	r3, [r6, #0]
 8004f3c:	b003      	add	sp, #12
 8004f3e:	e8bd 8ff0 	ldmia.w	sp!, {r4, r5, r6, r7, r8, r9, sl, fp, pc}
 8004f42:	2380      	movs	r3, #128	; 0x80
 8004f44:	f04f 0e40 	mov.w	lr, #64	; 0x40
 8004f48:	203f      	movs	r0, #63	; 0x3f
 8004f4a:	e749      	b.n	8004de0 <_malloc_r+0x44>
 8004f4c:	4670      	mov	r0, lr
 8004f4e:	e75d      	b.n	8004e0c <_malloc_r+0x70>
 8004f50:	4423      	add	r3, r4
 8004f52:	68e1      	ldr	r1, [r4, #12]
 8004f54:	685a      	ldr	r2, [r3, #4]
 8004f56:	68a5      	ldr	r5, [r4, #8]
 8004f58:	f042 0201 	orr.w	r2, r2, #1
 8004f5c:	60e9      	str	r1, [r5, #12]
 8004f5e:	4630      	mov	r0, r6
 8004f60:	608d      	str	r5, [r1, #8]
 8004f62:	605a      	str	r2, [r3, #4]
 8004f64:	f000 f9d4 	bl	8005310 <__malloc_unlock>
 8004f68:	3408      	adds	r4, #8
 8004f6a:	4620      	mov	r0, r4
 8004f6c:	b003      	add	sp, #12
 8004f6e:	e8bd 8ff0 	ldmia.w	sp!, {r4, r5, r6, r7, r8, r9, sl, fp, pc}
 8004f72:	4423      	add	r3, r4
 8004f74:	4630      	mov	r0, r6
 8004f76:	685a      	ldr	r2, [r3, #4]
 8004f78:	f042 0201 	orr.w	r2, r2, #1
 8004f7c:	605a      	str	r2, [r3, #4]
 8004f7e:	f000 f9c7 	bl	8005310 <__malloc_unlock>
 8004f82:	3408      	adds	r4, #8
 8004f84:	4620      	mov	r0, r4
 8004f86:	b003      	add	sp, #12
 8004f88:	e8bd 8ff0 	ldmia.w	sp!, {r4, r5, r6, r7, r8, r9, sl, fp, pc}
 8004f8c:	68bc      	ldr	r4, [r7, #8]
 8004f8e:	6863      	ldr	r3, [r4, #4]
 8004f90:	f023 0803 	bic.w	r8, r3, #3
 8004f94:	45a8      	cmp	r8, r5
 8004f96:	d304      	bcc.n	8004fa2 <_malloc_r+0x206>
 8004f98:	ebc5 0308 	rsb	r3, r5, r8
 8004f9c:	2b0f      	cmp	r3, #15
 8004f9e:	f300 808c 	bgt.w	80050ba <_malloc_r+0x31e>
 8004fa2:	4b55      	ldr	r3, [pc, #340]	; (80050f8 <_malloc_r+0x35c>)
 8004fa4:	f8df 9160 	ldr.w	r9, [pc, #352]	; 8005108 <_malloc_r+0x36c>
 8004fa8:	681a      	ldr	r2, [r3, #0]
 8004faa:	f8d9 3000 	ldr.w	r3, [r9]
 8004fae:	3301      	adds	r3, #1
 8004fb0:	442a      	add	r2, r5
 8004fb2:	eb04 0a08 	add.w	sl, r4, r8
 8004fb6:	f000 8160 	beq.w	800527a <_malloc_r+0x4de>
 8004fba:	f502 5280 	add.w	r2, r2, #4096	; 0x1000
 8004fbe:	320f      	adds	r2, #15
 8004fc0:	f422 627f 	bic.w	r2, r2, #4080	; 0xff0
 8004fc4:	f022 020f 	bic.w	r2, r2, #15
 8004fc8:	4611      	mov	r1, r2
 8004fca:	4630      	mov	r0, r6
 8004fcc:	9201      	str	r2, [sp, #4]
 8004fce:	f000 f9a1 	bl	8005314 <_sbrk_r>
 8004fd2:	f1b0 3fff 	cmp.w	r0, #4294967295
 8004fd6:	4683      	mov	fp, r0
 8004fd8:	9a01      	ldr	r2, [sp, #4]
 8004fda:	f000 8158 	beq.w	800528e <_malloc_r+0x4f2>
 8004fde:	4582      	cmp	sl, r0
 8004fe0:	f200 80fc 	bhi.w	80051dc <_malloc_r+0x440>
 8004fe4:	4b45      	ldr	r3, [pc, #276]	; (80050fc <_malloc_r+0x360>)
 8004fe6:	6819      	ldr	r1, [r3, #0]
 8004fe8:	45da      	cmp	sl, fp
 8004fea:	4411      	add	r1, r2
 8004fec:	6019      	str	r1, [r3, #0]
 8004fee:	f000 8153 	beq.w	8005298 <_malloc_r+0x4fc>
 8004ff2:	f8d9 0000 	ldr.w	r0, [r9]
 8004ff6:	f8df e110 	ldr.w	lr, [pc, #272]	; 8005108 <_malloc_r+0x36c>
 8004ffa:	3001      	adds	r0, #1
 8004ffc:	bf1b      	ittet	ne
 8004ffe:	ebca 0a0b 	rsbne	sl, sl, fp
 8005002:	4451      	addne	r1, sl
 8005004:	f8ce b000 	streq.w	fp, [lr]
 8005008:	6019      	strne	r1, [r3, #0]
 800500a:	f01b 0107 	ands.w	r1, fp, #7
 800500e:	f000 8117 	beq.w	8005240 <_malloc_r+0x4a4>
 8005012:	f1c1 0008 	rsb	r0, r1, #8
 8005016:	f5c1 5180 	rsb	r1, r1, #4096	; 0x1000
 800501a:	4483      	add	fp, r0
 800501c:	3108      	adds	r1, #8
 800501e:	445a      	add	r2, fp
 8005020:	f3c2 020b 	ubfx	r2, r2, #0, #12
 8005024:	ebc2 0901 	rsb	r9, r2, r1
 8005028:	4649      	mov	r1, r9
 800502a:	4630      	mov	r0, r6
 800502c:	9301      	str	r3, [sp, #4]
 800502e:	f000 f971 	bl	8005314 <_sbrk_r>
 8005032:	1c43      	adds	r3, r0, #1
 8005034:	9b01      	ldr	r3, [sp, #4]
 8005036:	f000 813f 	beq.w	80052b8 <_malloc_r+0x51c>
 800503a:	ebcb 0200 	rsb	r2, fp, r0
 800503e:	444a      	add	r2, r9
 8005040:	f042 0201 	orr.w	r2, r2, #1
 8005044:	6819      	ldr	r1, [r3, #0]
 8005046:	f8c7 b008 	str.w	fp, [r7, #8]
 800504a:	4449      	add	r1, r9
 800504c:	42bc      	cmp	r4, r7
 800504e:	f8cb 2004 	str.w	r2, [fp, #4]
 8005052:	6019      	str	r1, [r3, #0]
 8005054:	f8df 90a4 	ldr.w	r9, [pc, #164]	; 80050fc <_malloc_r+0x360>
 8005058:	d016      	beq.n	8005088 <_malloc_r+0x2ec>
 800505a:	f1b8 0f0f 	cmp.w	r8, #15
 800505e:	f240 80fd 	bls.w	800525c <_malloc_r+0x4c0>
 8005062:	6862      	ldr	r2, [r4, #4]
 8005064:	f1a8 030c 	sub.w	r3, r8, #12
 8005068:	f023 0307 	bic.w	r3, r3, #7
 800506c:	18e0      	adds	r0, r4, r3
 800506e:	f002 0201 	and.w	r2, r2, #1
 8005072:	f04f 0e05 	mov.w	lr, #5
 8005076:	431a      	orrs	r2, r3
 8005078:	2b0f      	cmp	r3, #15
 800507a:	6062      	str	r2, [r4, #4]
 800507c:	f8c0 e004 	str.w	lr, [r0, #4]
 8005080:	f8c0 e008 	str.w	lr, [r0, #8]
 8005084:	f200 811c 	bhi.w	80052c0 <_malloc_r+0x524>
 8005088:	4b1d      	ldr	r3, [pc, #116]	; (8005100 <_malloc_r+0x364>)
 800508a:	68bc      	ldr	r4, [r7, #8]
 800508c:	681a      	ldr	r2, [r3, #0]
 800508e:	4291      	cmp	r1, r2
 8005090:	bf88      	it	hi
 8005092:	6019      	strhi	r1, [r3, #0]
 8005094:	4b1b      	ldr	r3, [pc, #108]	; (8005104 <_malloc_r+0x368>)
 8005096:	681a      	ldr	r2, [r3, #0]
 8005098:	4291      	cmp	r1, r2
 800509a:	6862      	ldr	r2, [r4, #4]
 800509c:	bf88      	it	hi
 800509e:	6019      	strhi	r1, [r3, #0]
 80050a0:	f022 0203 	bic.w	r2, r2, #3
 80050a4:	4295      	cmp	r5, r2
 80050a6:	eba2 0305 	sub.w	r3, r2, r5
 80050aa:	d801      	bhi.n	80050b0 <_malloc_r+0x314>
 80050ac:	2b0f      	cmp	r3, #15
 80050ae:	dc04      	bgt.n	80050ba <_malloc_r+0x31e>
 80050b0:	4630      	mov	r0, r6
 80050b2:	f000 f92d 	bl	8005310 <__malloc_unlock>
 80050b6:	2400      	movs	r4, #0
 80050b8:	e738      	b.n	8004f2c <_malloc_r+0x190>
 80050ba:	1962      	adds	r2, r4, r5
 80050bc:	f043 0301 	orr.w	r3, r3, #1
 80050c0:	f045 0501 	orr.w	r5, r5, #1
 80050c4:	6065      	str	r5, [r4, #4]
 80050c6:	4630      	mov	r0, r6
 80050c8:	60ba      	str	r2, [r7, #8]
 80050ca:	6053      	str	r3, [r2, #4]
 80050cc:	f000 f920 	bl	8005310 <__malloc_unlock>
 80050d0:	3408      	adds	r4, #8
 80050d2:	4620      	mov	r0, r4
 80050d4:	b003      	add	sp, #12
 80050d6:	e8bd 8ff0 	ldmia.w	sp!, {r4, r5, r6, r7, r8, r9, sl, fp, pc}
 80050da:	2b14      	cmp	r3, #20
 80050dc:	d971      	bls.n	80051c2 <_malloc_r+0x426>
 80050de:	2b54      	cmp	r3, #84	; 0x54
 80050e0:	f200 80a4 	bhi.w	800522c <_malloc_r+0x490>
 80050e4:	0b28      	lsrs	r0, r5, #12
 80050e6:	f100 0e6f 	add.w	lr, r0, #111	; 0x6f
 80050ea:	ea4f 034e 	mov.w	r3, lr, lsl #1
 80050ee:	306e      	adds	r0, #110	; 0x6e
 80050f0:	e676      	b.n	8004de0 <_malloc_r+0x44>
 80050f2:	bf00      	nop
 80050f4:	2000045c 	.word	0x2000045c
 80050f8:	200008dc 	.word	0x200008dc
 80050fc:	200008e0 	.word	0x200008e0
 8005100:	200008d8 	.word	0x200008d8
 8005104:	200008d4 	.word	0x200008d4
 8005108:	20000868 	.word	0x20000868
 800510c:	0a5a      	lsrs	r2, r3, #9
 800510e:	2a04      	cmp	r2, #4
 8005110:	d95e      	bls.n	80051d0 <_malloc_r+0x434>
 8005112:	2a14      	cmp	r2, #20
 8005114:	f200 80b3 	bhi.w	800527e <_malloc_r+0x4e2>
 8005118:	f102 015c 	add.w	r1, r2, #92	; 0x5c
 800511c:	0049      	lsls	r1, r1, #1
 800511e:	325b      	adds	r2, #91	; 0x5b
 8005120:	eb07 0c81 	add.w	ip, r7, r1, lsl #2
 8005124:	f857 1021 	ldr.w	r1, [r7, r1, lsl #2]
 8005128:	f8df 81dc 	ldr.w	r8, [pc, #476]	; 8005308 <_malloc_r+0x56c>
 800512c:	f1ac 0c08 	sub.w	ip, ip, #8
 8005130:	458c      	cmp	ip, r1
 8005132:	f000 8088 	beq.w	8005246 <_malloc_r+0x4aa>
 8005136:	684a      	ldr	r2, [r1, #4]
 8005138:	f022 0203 	bic.w	r2, r2, #3
 800513c:	4293      	cmp	r3, r2
 800513e:	d202      	bcs.n	8005146 <_malloc_r+0x3aa>
 8005140:	6889      	ldr	r1, [r1, #8]
 8005142:	458c      	cmp	ip, r1
 8005144:	d1f7      	bne.n	8005136 <_malloc_r+0x39a>
 8005146:	f8d1 c00c 	ldr.w	ip, [r1, #12]
 800514a:	687a      	ldr	r2, [r7, #4]
 800514c:	f8c4 c00c 	str.w	ip, [r4, #12]
 8005150:	60a1      	str	r1, [r4, #8]
 8005152:	f8cc 4008 	str.w	r4, [ip, #8]
 8005156:	60cc      	str	r4, [r1, #12]
 8005158:	e688      	b.n	8004e6c <_malloc_r+0xd0>
 800515a:	1963      	adds	r3, r4, r5
 800515c:	f042 0701 	orr.w	r7, r2, #1
 8005160:	f045 0501 	orr.w	r5, r5, #1
 8005164:	6065      	str	r5, [r4, #4]
 8005166:	4630      	mov	r0, r6
 8005168:	614b      	str	r3, [r1, #20]
 800516a:	610b      	str	r3, [r1, #16]
 800516c:	f8c3 e00c 	str.w	lr, [r3, #12]
 8005170:	f8c3 e008 	str.w	lr, [r3, #8]
 8005174:	605f      	str	r7, [r3, #4]
 8005176:	509a      	str	r2, [r3, r2]
 8005178:	3408      	adds	r4, #8
 800517a:	f000 f8c9 	bl	8005310 <__malloc_unlock>
 800517e:	e6d5      	b.n	8004f2c <_malloc_r+0x190>
 8005180:	684a      	ldr	r2, [r1, #4]
 8005182:	e673      	b.n	8004e6c <_malloc_r+0xd0>
 8005184:	f108 0801 	add.w	r8, r8, #1
 8005188:	f018 0f03 	tst.w	r8, #3
 800518c:	f10c 0c08 	add.w	ip, ip, #8
 8005190:	f47f ae7f 	bne.w	8004e92 <_malloc_r+0xf6>
 8005194:	e030      	b.n	80051f8 <_malloc_r+0x45c>
 8005196:	68dc      	ldr	r4, [r3, #12]
 8005198:	42a3      	cmp	r3, r4
 800519a:	bf08      	it	eq
 800519c:	3002      	addeq	r0, #2
 800519e:	f43f ae35 	beq.w	8004e0c <_malloc_r+0x70>
 80051a2:	e6b3      	b.n	8004f0c <_malloc_r+0x170>
 80051a4:	440b      	add	r3, r1
 80051a6:	460c      	mov	r4, r1
 80051a8:	685a      	ldr	r2, [r3, #4]
 80051aa:	68c9      	ldr	r1, [r1, #12]
 80051ac:	f854 5f08 	ldr.w	r5, [r4, #8]!
 80051b0:	f042 0201 	orr.w	r2, r2, #1
 80051b4:	605a      	str	r2, [r3, #4]
 80051b6:	4630      	mov	r0, r6
 80051b8:	60e9      	str	r1, [r5, #12]
 80051ba:	608d      	str	r5, [r1, #8]
 80051bc:	f000 f8a8 	bl	8005310 <__malloc_unlock>
 80051c0:	e6b4      	b.n	8004f2c <_malloc_r+0x190>
 80051c2:	f103 0e5c 	add.w	lr, r3, #92	; 0x5c
 80051c6:	f103 005b 	add.w	r0, r3, #91	; 0x5b
 80051ca:	ea4f 034e 	mov.w	r3, lr, lsl #1
 80051ce:	e607      	b.n	8004de0 <_malloc_r+0x44>
 80051d0:	099a      	lsrs	r2, r3, #6
 80051d2:	f102 0139 	add.w	r1, r2, #57	; 0x39
 80051d6:	0049      	lsls	r1, r1, #1
 80051d8:	3238      	adds	r2, #56	; 0x38
 80051da:	e7a1      	b.n	8005120 <_malloc_r+0x384>
 80051dc:	42bc      	cmp	r4, r7
 80051de:	4b4a      	ldr	r3, [pc, #296]	; (8005308 <_malloc_r+0x56c>)
 80051e0:	f43f af00 	beq.w	8004fe4 <_malloc_r+0x248>
 80051e4:	689c      	ldr	r4, [r3, #8]
 80051e6:	6862      	ldr	r2, [r4, #4]
 80051e8:	f022 0203 	bic.w	r2, r2, #3
 80051ec:	e75a      	b.n	80050a4 <_malloc_r+0x308>
 80051ee:	f859 3908 	ldr.w	r3, [r9], #-8
 80051f2:	4599      	cmp	r9, r3
 80051f4:	f040 8082 	bne.w	80052fc <_malloc_r+0x560>
 80051f8:	f010 0f03 	tst.w	r0, #3
 80051fc:	f100 30ff 	add.w	r0, r0, #4294967295
 8005200:	d1f5      	bne.n	80051ee <_malloc_r+0x452>
 8005202:	687b      	ldr	r3, [r7, #4]
 8005204:	ea23 0304 	bic.w	r3, r3, r4
 8005208:	607b      	str	r3, [r7, #4]
 800520a:	0064      	lsls	r4, r4, #1
 800520c:	429c      	cmp	r4, r3
 800520e:	f63f aebd 	bhi.w	8004f8c <_malloc_r+0x1f0>
 8005212:	2c00      	cmp	r4, #0
 8005214:	f43f aeba 	beq.w	8004f8c <_malloc_r+0x1f0>
 8005218:	421c      	tst	r4, r3
 800521a:	4640      	mov	r0, r8
 800521c:	f47f ae35 	bne.w	8004e8a <_malloc_r+0xee>
 8005220:	0064      	lsls	r4, r4, #1
 8005222:	421c      	tst	r4, r3
 8005224:	f100 0004 	add.w	r0, r0, #4
 8005228:	d0fa      	beq.n	8005220 <_malloc_r+0x484>
 800522a:	e62e      	b.n	8004e8a <_malloc_r+0xee>
 800522c:	f5b3 7faa 	cmp.w	r3, #340	; 0x154
 8005230:	d818      	bhi.n	8005264 <_malloc_r+0x4c8>
 8005232:	0be8      	lsrs	r0, r5, #15
 8005234:	f100 0e78 	add.w	lr, r0, #120	; 0x78
 8005238:	ea4f 034e 	mov.w	r3, lr, lsl #1
 800523c:	3077      	adds	r0, #119	; 0x77
 800523e:	e5cf      	b.n	8004de0 <_malloc_r+0x44>
 8005240:	f44f 5180 	mov.w	r1, #4096	; 0x1000
 8005244:	e6eb      	b.n	800501e <_malloc_r+0x282>
 8005246:	2101      	movs	r1, #1
 8005248:	f8d8 3004 	ldr.w	r3, [r8, #4]
 800524c:	1092      	asrs	r2, r2, #2
 800524e:	fa01 f202 	lsl.w	r2, r1, r2
 8005252:	431a      	orrs	r2, r3
 8005254:	f8c8 2004 	str.w	r2, [r8, #4]
 8005258:	4661      	mov	r1, ip
 800525a:	e777      	b.n	800514c <_malloc_r+0x3b0>
 800525c:	2301      	movs	r3, #1
 800525e:	f8cb 3004 	str.w	r3, [fp, #4]
 8005262:	e725      	b.n	80050b0 <_malloc_r+0x314>
 8005264:	f240 5254 	movw	r2, #1364	; 0x554
 8005268:	4293      	cmp	r3, r2
 800526a:	d820      	bhi.n	80052ae <_malloc_r+0x512>
 800526c:	0ca8      	lsrs	r0, r5, #18
 800526e:	f100 0e7d 	add.w	lr, r0, #125	; 0x7d
 8005272:	ea4f 034e 	mov.w	r3, lr, lsl #1
 8005276:	307c      	adds	r0, #124	; 0x7c
 8005278:	e5b2      	b.n	8004de0 <_malloc_r+0x44>
 800527a:	3210      	adds	r2, #16
 800527c:	e6a4      	b.n	8004fc8 <_malloc_r+0x22c>
 800527e:	2a54      	cmp	r2, #84	; 0x54
 8005280:	d826      	bhi.n	80052d0 <_malloc_r+0x534>
 8005282:	0b1a      	lsrs	r2, r3, #12
 8005284:	f102 016f 	add.w	r1, r2, #111	; 0x6f
 8005288:	0049      	lsls	r1, r1, #1
 800528a:	326e      	adds	r2, #110	; 0x6e
 800528c:	e748      	b.n	8005120 <_malloc_r+0x384>
 800528e:	68bc      	ldr	r4, [r7, #8]
 8005290:	6862      	ldr	r2, [r4, #4]
 8005292:	f022 0203 	bic.w	r2, r2, #3
 8005296:	e705      	b.n	80050a4 <_malloc_r+0x308>
 8005298:	f3ca 000b 	ubfx	r0, sl, #0, #12
 800529c:	2800      	cmp	r0, #0
 800529e:	f47f aea8 	bne.w	8004ff2 <_malloc_r+0x256>
 80052a2:	4442      	add	r2, r8
 80052a4:	68bb      	ldr	r3, [r7, #8]
 80052a6:	f042 0201 	orr.w	r2, r2, #1
 80052aa:	605a      	str	r2, [r3, #4]
 80052ac:	e6ec      	b.n	8005088 <_malloc_r+0x2ec>
 80052ae:	23fe      	movs	r3, #254	; 0xfe
 80052b0:	f04f 0e7f 	mov.w	lr, #127	; 0x7f
 80052b4:	207e      	movs	r0, #126	; 0x7e
 80052b6:	e593      	b.n	8004de0 <_malloc_r+0x44>
 80052b8:	2201      	movs	r2, #1
 80052ba:	f04f 0900 	mov.w	r9, #0
 80052be:	e6c1      	b.n	8005044 <_malloc_r+0x2a8>
 80052c0:	f104 0108 	add.w	r1, r4, #8
 80052c4:	4630      	mov	r0, r6
 80052c6:	f7ff fc81 	bl	8004bcc <_free_r>
 80052ca:	f8d9 1000 	ldr.w	r1, [r9]
 80052ce:	e6db      	b.n	8005088 <_malloc_r+0x2ec>
 80052d0:	f5b2 7faa 	cmp.w	r2, #340	; 0x154
 80052d4:	d805      	bhi.n	80052e2 <_malloc_r+0x546>
 80052d6:	0bda      	lsrs	r2, r3, #15
 80052d8:	f102 0178 	add.w	r1, r2, #120	; 0x78
 80052dc:	0049      	lsls	r1, r1, #1
 80052de:	3277      	adds	r2, #119	; 0x77
 80052e0:	e71e      	b.n	8005120 <_malloc_r+0x384>
 80052e2:	f240 5154 	movw	r1, #1364	; 0x554
 80052e6:	428a      	cmp	r2, r1
 80052e8:	d805      	bhi.n	80052f6 <_malloc_r+0x55a>
 80052ea:	0c9a      	lsrs	r2, r3, #18
 80052ec:	f102 017d 	add.w	r1, r2, #125	; 0x7d
 80052f0:	0049      	lsls	r1, r1, #1
 80052f2:	327c      	adds	r2, #124	; 0x7c
 80052f4:	e714      	b.n	8005120 <_malloc_r+0x384>
 80052f6:	21fe      	movs	r1, #254	; 0xfe
 80052f8:	227e      	movs	r2, #126	; 0x7e
 80052fa:	e711      	b.n	8005120 <_malloc_r+0x384>
 80052fc:	687b      	ldr	r3, [r7, #4]
 80052fe:	e784      	b.n	800520a <_malloc_r+0x46e>
 8005300:	08e8      	lsrs	r0, r5, #3
 8005302:	1c43      	adds	r3, r0, #1
 8005304:	005b      	lsls	r3, r3, #1
 8005306:	e5f8      	b.n	8004efa <_malloc_r+0x15e>
 8005308:	2000045c 	.word	0x2000045c

0800530c <__malloc_lock>:
 800530c:	4770      	bx	lr
 800530e:	bf00      	nop

08005310 <__malloc_unlock>:
 8005310:	4770      	bx	lr
 8005312:	bf00      	nop

08005314 <_sbrk_r>:
 8005314:	b538      	push	{r3, r4, r5, lr}
 8005316:	4c07      	ldr	r4, [pc, #28]	; (8005334 <_sbrk_r+0x20>)
 8005318:	2300      	movs	r3, #0
 800531a:	4605      	mov	r5, r0
 800531c:	4608      	mov	r0, r1
 800531e:	6023      	str	r3, [r4, #0]
 8005320:	f7fc f89e 	bl	8001460 <_sbrk>
 8005324:	1c43      	adds	r3, r0, #1
 8005326:	d000      	beq.n	800532a <_sbrk_r+0x16>
 8005328:	bd38      	pop	{r3, r4, r5, pc}
 800532a:	6823      	ldr	r3, [r4, #0]
 800532c:	2b00      	cmp	r3, #0
 800532e:	d0fb      	beq.n	8005328 <_sbrk_r+0x14>
 8005330:	602b      	str	r3, [r5, #0]
 8005332:	bd38      	pop	{r3, r4, r5, pc}
 8005334:	200011d4 	.word	0x200011d4

08005338 <SchlossBox_M>:
 8005338:	200009a8                                ... 

0800533c <CSWTCH.106>:
 800533c:	00000000 00000002 00000001 00000003     ................
 800534c:	00000000                                ....

08005350 <SchlossBox_ConstP>:
	...
 800535c:	3ff00000 646f6d66 00000000              ...?fmod....

08005368 <Zero>:
	...
 8005374:	80000000                                ....

08005378 <_global_impure_ptr>:
 8005378:	20000030                                0.. 
